cnumpy.core.multiarray
_reconstruct
p0
(cnumpy
ndarray
p1
(I0
tp2
S'b'
p3
tp4
Rp5
(I1
(I7
tp6
cnumpy
dtype
p7
(S'O8'
p8
I0
I1
tp9
Rp10
(I3
S'|'
p11
NNNI-1
I-1
I63
tp12
bI00
(lp13
(lp14
(dp15
Vmachine
p16
Vshunt
p17
sVdata
p18
(dp19
Vinverter
p20
I00
sVnRelaysOn
p21
I0
sVprev
p22
F24.94
sVcaps
p23
F25.0
ssS'offset'
p24
F0.0
sVmillis
p25
I293468
sS'timestamp'
p26
cdatetime
datetime
p27
(S'\x07\xdc\x06\x11\x151\x1d\x05\x95\xef'
p28
tp29
Rp30
sa(dp31
Vmachine
p32
Vshunt
p33
sVdata
p34
(dp35
Vinverter
p36
I00
sVnRelaysOn
p37
I0
sVprev
p38
F25.0
sVcaps
p39
F25.02
ssg24
F0.20197800000000043
sVmillis
p40
I293668
sg26
g27
(S'\x07\xdc\x06\x11\x151\x1d\x08\xaa\xe9'
p41
tp42
Rp43
sa(dp44
Vmachine
p45
Vshunt
p46
sVdata
p47
(dp48
Vinverter
p49
I00
sVnRelaysOn
p50
I0
sVprev
p51
F25.0
sVcaps
p52
F25.01
ssg24
F0.40383800000000036
sVmillis
p53
I293869
sg26
g27
(S'\x07\xdc\x06\x11\x151\x1d\x0b\xbfm'
p54
tp55
Rp56
sa(dp57
Vmachine
p58
Vshunt
p59
sVdata
p60
(dp61
Vinverter
p62
I00
sVnRelaysOn
p63
I0
sVprev
p64
F25.0
sVcaps
p65
F25.0
ssg24
F0.6056279999999994
sVmillis
p66
I294071
sg26
g27
(S'\x07\xdc\x06\x11\x151\x1d\x0e\xd3\xab'
p67
tp68
Rp69
sa(dp70
Vmachine
p71
Vshunt
p72
sVdata
p73
(dp74
Vinverter
p75
I00
sVnRelaysOn
p76
I0
sVprev
p77
F25.0
sVcaps
p78
F25.01
ssg24
F0.8073370000000004
sVmillis
p79
I294272
sg26
g27
(S'\x07\xdc\x06\x11\x151\x1e\x02\xa5X'
p80
tp81
Rp82
sa(dp83
Vmachine
p84
Vshunt
p85
sVdata
p86
(dp87
Vinverter
p88
I00
sVnRelaysOn
p89
I0
sVprev
p90
F25.0
sVcaps
p91
F25.01
ssg24
F1.0096950000000007
sVmillis
p92
I294474
sg26
g27
(S'\x07\xdc\x06\x11\x151\x1e\x05\xbb\xce'
p93
tp94
Rp95
sa(dp96
Vmachine
p97
Vshunt
p98
sVdata
p99
(dp100
Vinverter
p101
I00
sVnRelaysOn
p102
I0
sVprev
p103
F25.01
sVcaps
p104
F25.01
ssg24
F1.2013280000000002
sVmillis
p105
I294674
sg26
g27
(S'\x07\xdc\x06\x11\x151\x1e\x08\xa8_'
p106
tp107
Rp108
sa(dp109
Vmachine
p110
Vshunt
p111
sVdata
p112
(dp113
Vinverter
p114
I00
sVnRelaysOn
p115
I0
sVprev
p116
F25.01
sVcaps
p117
F25.0
ssg24
F1.4044980000000002
sVmillis
p118
I294876
sg26
g27
(S'\x07\xdc\x06\x11\x151\x1e\x0b\xc2\x01'
p119
tp120
Rp121
sa(dp122
Vmachine
p123
Vshunt
p124
sVdata
p125
(dp126
Vinverter
p127
I00
sVnRelaysOn
p128
I0
sVprev
p129
F25.01
sVcaps
p130
F25.02
ssg24
F1.6063539999999996
sVmillis
p131
I295076
sg26
g27
(S'\x07\xdc\x06\x11\x151\x1e\x0e\xd6\x81'
p132
tp133
Rp134
sa(dp135
Vmachine
p136
Vshunt
p137
sVdata
p138
(dp139
Vinverter
p140
I00
sVnRelaysOn
p141
I0
sVprev
p142
F25.01
sVcaps
p143
F25.03
ssg24
F1.8082259999999994
sVmillis
p144
I295277
sg26
g27
(S'\x07\xdc\x06\x11\x151\x1f\x02\xa8\xd1'
p145
tp146
Rp147
sa(dp148
Vmachine
p149
Vshunt
p150
sVdata
p151
(dp152
Vinverter
p153
I00
sVnRelaysOn
p154
I0
sVprev
p155
F25.01
sVcaps
p156
F25.01
ssg24
F2.0101630000000004
sVmillis
p157
I295479
sg26
g27
(S'\x07\xdc\x06\x11\x151\x1f\x05\xbd\xa2'
p158
tp159
Rp160
sa(dp161
Vmachine
p162
Vshunt
p163
sVdata
p164
(dp165
Vinverter
p166
I00
sVnRelaysOn
p167
I0
sVprev
p168
F25.01
sVcaps
p169
F25.01
ssg24
F2.212059
sVmillis
p170
I295681
sg26
g27
(S'\x07\xdc\x06\x11\x151\x1f\x08\xd2J'
p171
tp172
Rp173
sa(dp174
Vmachine
p175
Vshunt
p176
sVdata
p177
(dp178
Vinverter
p179
I00
sVnRelaysOn
p180
I0
sVprev
p181
F25.01
sVcaps
p182
F25.01
ssg24
F2.414072000000001
sVmillis
p183
I295882
sg26
g27
(S'\x07\xdc\x06\x11\x151\x1f\x0b\xe7g'
p184
tp185
Rp186
sa(dp187
Vmachine
p188
Vshunt
p189
sVdata
p190
(dp191
Vinverter
p192
I00
sVnRelaysOn
p193
I0
sVprev
p194
F25.01
sVcaps
p195
F25.02
ssg24
F2.6157880000000002
sVmillis
p196
I296082
sg26
g27
(S'\x07\xdc\x06\x11\x151\x1f\x0e\xfb['
p197
tp198
Rp199
sa(dp200
Vmachine
p201
Vshunt
p202
sVdata
p203
(dp204
Vinverter
p205
I00
sVnRelaysOn
p206
I0
sVprev
p207
F25.01
sVcaps
p208
F25.02
ssg24
F2.8178350000000005
sVmillis
p209
I296284
sg26
g27
(S'\x07\xdc\x06\x11\x151 \x02\xceZ'
p210
tp211
Rp212
sa(dp213
Vmachine
p214
Vshunt
p215
sVdata
p216
(dp217
Vinverter
p218
I00
sVnRelaysOn
p219
I0
sVprev
p220
F25.01
sVcaps
p221
F25.02
ssg24
F3.0197190000000003
sVmillis
p222
I296484
sg26
g27
(S'\x07\xdc\x06\x11\x151 \x05\xe2\xf6'
p223
tp224
Rp225
sa(dp226
Vmachine
p227
Vshunt
p228
sVdata
p229
(dp230
Vinverter
p231
I00
sVnRelaysOn
p232
I0
sVprev
p233
F25.02
sVcaps
p234
F25.03
ssg24
F3.221522
sVmillis
p235
I296685
sg26
g27
(S'\x07\xdc\x06\x11\x151 \x08\xf7A'
p236
tp237
Rp238
sa(dp239
Vmachine
p240
Vshunt
p241
sVdata
p242
(dp243
Vinverter
p244
I00
sVnRelaysOn
p245
I0
sVprev
p246
F25.02
sVcaps
p247
F25.02
ssg24
F3.423418
sVmillis
p248
I296887
sg26
g27
(S'\x07\xdc\x06\x11\x151 \x0c\x0b\xe9'
p249
tp250
Rp251
sa(dp252
Vmachine
p253
Vshunt
p254
sVdata
p255
(dp256
Vinverter
p257
I00
sVnRelaysOn
p258
I0
sVprev
p259
F25.02
sVcaps
p260
F25.03
ssg24
F3.615316
sVmillis
p261
I297088
sg26
g27
(S'\x07\xdc\x06\x11\x151 \x0e\xf9\x83'
p262
tp263
Rp264
sa(dp265
Vmachine
p266
Vshunt
p267
sVdata
p268
(dp269
Vinverter
p270
I00
sVnRelaysOn
p271
I0
sVprev
p272
F25.02
sVcaps
p273
F25.04
ssg24
F3.8184319999999996
sVmillis
p274
I297290
sg26
g27
(S'\x07\xdc\x06\x11\x151!\x02\xd0\xaf'
p275
tp276
Rp277
sa(dp278
Vmachine
p279
Vshunt
p280
sVdata
p281
(dp282
Vinverter
p283
I00
sVnRelaysOn
p284
I0
sVprev
p285
F25.02
sVcaps
p286
F25.05
ssg24
F4.020274000000001
sVmillis
p287
I297490
sg26
g27
(S'\x07\xdc\x06\x11\x151!\x05\xe5!'
p288
tp289
Rp290
sa(dp291
Vmachine
p292
Vshunt
p293
sVdata
p294
(dp295
Vinverter
p296
I00
sVnRelaysOn
p297
I0
sVprev
p298
F25.05
sVcaps
p299
F25.06
ssg24
F4.222028
sVmillis
p300
I297692
sg26
g27
(S'\x07\xdc\x06\x11\x151!\x08\xf9;'
p301
tp302
Rp303
sa(dp304
Vmachine
p305
Vshunt
p306
sVdata
p307
(dp308
Vinverter
p309
I00
sVnRelaysOn
p310
I0
sVprev
p311
F25.05
sVcaps
p312
F25.06
ssg24
F4.4240960000000005
sVmillis
p313
I297892
sg26
g27
(S'\x07\xdc\x06\x11\x151!\x0c\x0e\x8f'
p314
tp315
Rp316
sa(dp317
Vmachine
p318
Vshunt
p319
sVdata
p320
(dp321
Vinverter
p322
I00
sVnRelaysOn
p323
I0
sVprev
p324
F25.05
sVcaps
p325
F25.06
ssg24
F4.625959
sVmillis
p326
I298093
sg26
g27
(S'\x07\xdc\x06\x11\x151!\x0f#\x16'
p327
tp328
Rp329
sa(dp330
Vmachine
p331
Vshunt
p332
sVdata
p333
(dp334
Vinverter
p335
I00
sVnRelaysOn
p336
I0
sVprev
p337
F25.05
sVcaps
p338
F25.06
ssg24
F4.827819
sVmillis
p339
I298295
sg26
g27
(S'\x07\xdc\x06\x11\x151"\x02\xf5Z'
p340
tp341
Rp342
sa(dp343
Vmachine
p344
Vshunt
p345
sVdata
p346
(dp347
Vinverter
p348
I00
sVnRelaysOn
p349
I0
sVprev
p350
F25.05
sVcaps
p351
F25.07
ssg24
F5.029785
sVmillis
p352
I298496
sg26
g27
(S'\x07\xdc\x06\x11\x151"\x06\nH'
p353
tp354
Rp355
sa(dp356
Vmachine
p357
Vshunt
p358
sVdata
p359
(dp360
Vinverter
p361
I00
sVnRelaysOn
p362
I0
sVprev
p363
F25.07
sVcaps
p364
F25.08
ssg24
F5.231782000000001
sVmillis
p365
I298698
sg26
g27
(S'\x07\xdc\x06\x11\x151"\t\x1fU'
p366
tp367
Rp368
sa(dp369
Vmachine
p370
Vshunt
p371
sVdata
p372
(dp373
Vinverter
p374
I00
sVnRelaysOn
p375
I0
sVprev
p376
F25.07
sVcaps
p377
F25.08
ssg24
F5.433577999999999
sVmillis
p378
I298898
sg26
g27
(S'\x07\xdc\x06\x11\x151"\x0c3\x99'
p379
tp380
Rp381
sa(dp382
Vmachine
p383
Vshunt
p384
sVdata
p385
(dp386
Vinverter
p387
I00
sVnRelaysOn
p388
I0
sVprev
p389
F25.07
sVcaps
p390
F25.1
ssg24
F5.635472000000002
sVmillis
p391
I299100
sg26
g27
(S'\x07\xdc\x06\x11\x151#\x00\x05\xff'
p392
tp393
Rp394
sa(dp395
Vmachine
p396
Vshunt
p397
sVdata
p398
(dp399
Vinverter
p400
I00
sVnRelaysOn
p401
I0
sVprev
p402
F25.07
sVcaps
p403
F25.09
ssg24
F5.837406
sVmillis
p404
I299300
sg26
g27
(S'\x07\xdc\x06\x11\x151#\x03\x1a\xcd'
p405
tp406
Rp407
sa(dp408
Vmachine
p409
Vshunt
p410
sVdata
p411
(dp412
Vinverter
p413
I00
sVnRelaysOn
p414
I0
sVprev
p415
F25.07
sVcaps
p416
F25.11
ssg24
F6.029283999999999
sVmillis
p417
I299501
sg26
g27
(S'\x07\xdc\x06\x11\x151#\x06\x08S'
p418
tp419
Rp420
sa(dp421
Vmachine
p422
Vshunt
p423
sVdata
p424
(dp425
Vinverter
p426
I00
sVnRelaysOn
p427
I0
sVprev
p428
F25.11
sVcaps
p429
F25.12
ssg24
F6.230532000000002
sVmillis
p430
I299703
sg26
g27
(S'\x07\xdc\x06\x11\x151#\t\x1as'
p431
tp432
Rp433
sa(dp434
Vmachine
p435
Vshunt
p436
sVdata
p437
(dp438
Vinverter
p439
I00
sVnRelaysOn
p440
I0
sVprev
p441
F25.11
sVcaps
p442
F25.13
ssg24
F6.432518
sVmillis
p443
I299904
sg26
g27
(S'\x07\xdc\x06\x11\x151#\x0c/u'
p444
tp445
Rp446
sa(dp447
Vmachine
p448
Vshunt
p449
sVdata
p450
(dp451
Vinverter
p452
I00
sVnRelaysOn
p453
I0
sVprev
p454
F25.11
sVcaps
p455
F25.13
ssg24
F6.636111999999999
sVmillis
p456
I300106
sg26
g27
(S'\x07\xdc\x06\x11\x151$\x00\x08\x7f'
p457
tp458
Rp459
sa(dp460
Vmachine
p461
Vshunt
p462
sVdata
p463
(dp464
Vinverter
p465
I00
sVnRelaysOn
p466
I0
sVprev
p467
F25.11
sVcaps
p468
F25.13
ssg24
F6.837987
sVmillis
p469
I300306
sg26
g27
(S'\x07\xdc\x06\x11\x151$\x03\x1d\x12'
p470
tp471
Rp472
sa(dp473
Vmachine
p474
Vshunt
p475
sVdata
p476
(dp477
Vinverter
p478
I00
sVnRelaysOn
p479
I0
sVprev
p480
F25.11
sVcaps
p481
F25.15
ssg24
F7.039885
sVmillis
p482
I300508
sg26
g27
(S'\x07\xdc\x06\x11\x151$\x061\xbc'
p483
tp484
Rp485
sa(dp486
Vmachine
p487
Vshunt
p488
sVdata
p489
(dp490
Vinverter
p491
I00
sVnRelaysOn
p492
I0
sVprev
p493
F25.15
sVcaps
p494
F25.15
ssg24
F7.240777
sVmillis
p495
I300709
sg26
g27
(S'\x07\xdc\x06\x11\x151$\tBx'
p496
tp497
Rp498
sa(dp499
Vmachine
p500
Vshunt
p501
sVdata
p502
(dp503
Vinverter
p504
I00
sVnRelaysOn
p505
I0
sVprev
p506
F25.15
sVcaps
p507
F25.13
ssg24
F7.442646000000002
sVmillis
p508
I300909
sg26
g27
(S'\x07\xdc\x06\x11\x151$\x0cW\x05'
p509
tp510
Rp511
sa(dp512
Vmachine
p513
Vshunt
p514
sVdata
p515
(dp516
Vinverter
p517
I00
sVnRelaysOn
p518
I0
sVprev
p519
F25.15
sVcaps
p520
F25.15
ssg24
F7.644564000000001
sVmillis
p521
I301111
sg26
g27
(S'\x07\xdc\x06\x11\x151%\x00)\x83'
p522
tp523
Rp524
sa(dp525
Vmachine
p526
Vshunt
p527
sVdata
p528
(dp529
Vinverter
p530
I00
sVnRelaysOn
p531
I0
sVprev
p532
F25.15
sVcaps
p533
F25.15
ssg24
F7.846494999999999
sVmillis
p534
I301313
sg26
g27
(S'\x07\xdc\x06\x11\x151%\x03>N'
p535
tp536
Rp537
sa(dp538
Vmachine
p539
Vshunt
p540
sVdata
p541
(dp542
Vinverter
p543
I00
sVnRelaysOn
p544
I0
sVprev
p545
F25.15
sVcaps
p546
F25.15
ssg24
F8.048512
sVmillis
p547
I301514
sg26
g27
(S'\x07\xdc\x06\x11\x151%\x06So'
p548
tp549
Rp550
sa(dp551
Vmachine
p552
Vshunt
p553
sVdata
p554
(dp555
Vinverter
p556
I00
sVnRelaysOn
p557
I0
sVprev
p558
F25.15
sVcaps
p559
F25.15
ssg24
F8.250283999999999
sVmillis
p560
I301714
sg26
g27
(S'\x07\xdc\x06\x11\x151%\tg\x9b'
p561
tp562
Rp563
sa(dp564
Vmachine
p565
Vshunt
p566
sVdata
p567
(dp568
Vinverter
p569
I00
sVnRelaysOn
p570
I0
sVprev
p571
F25.15
sVcaps
p572
F25.15
ssg24
F8.441301999999999
sVmillis
p573
I301916
sg26
g27
(S'\x07\xdc\x06\x11\x151%\x0cQ\xc5'
p574
tp575
Rp576
sa(dp577
Vmachine
p578
Vshunt
p579
sVdata
p580
(dp581
Vinverter
p582
I00
sVnRelaysOn
p583
I0
sVprev
p584
F25.15
sVcaps
p585
F25.15
ssg24
F8.645096
sVmillis
p586
I302116
sg26
g27
(S'\x07\xdc\x06\x11\x151&\x00+\x97'
p587
tp588
Rp589
sa(dp590
Vmachine
p591
Vshunt
p592
sVdata
p593
(dp594
Vinverter
p595
I00
sVnRelaysOn
p596
I0
sVprev
p597
F25.15
sVcaps
p598
F25.15
ssg24
F8.847032
sVmillis
p599
I302317
sg26
g27
(S'\x07\xdc\x06\x11\x151&\x03@g'
p600
tp601
Rp602
sa(dp603
Vmachine
p604
Vshunt
p605
sVdata
p606
(dp607
Vinverter
p608
I00
sVnRelaysOn
p609
I0
sVprev
p610
F25.15
sVcaps
p611
F25.17
ssg24
F9.047924
sVmillis
p612
I302519
sg26
g27
(S'\x07\xdc\x06\x11\x151&\x06Q#'
p613
tp614
Rp615
sa(dp616
Vmachine
p617
Vshunt
p618
sVdata
p619
(dp620
Vinverter
p621
I00
sVnRelaysOn
p622
I0
sVprev
p623
F25.17
sVcaps
p624
F25.19
ssg24
F9.250777000000001
sVmillis
p625
I302720
sg26
g27
(S'\x07\xdc\x06\x11\x151&\ti\x88'
p626
tp627
Rp628
sa(dp629
Vmachine
p630
Vshunt
p631
sVdata
p632
(dp633
Vinverter
p634
I00
sVnRelaysOn
p635
I0
sVprev
p636
F25.17
sVcaps
p637
F25.19
ssg24
F9.452775
sVmillis
p638
I302922
sg26
g27
(S'\x07\xdc\x06\x11\x151&\x0c~\x96'
p639
tp640
Rp641
sa(dp642
Vmachine
p643
Vshunt
p644
sVdata
p645
(dp646
Vinverter
p647
I00
sVnRelaysOn
p648
I0
sVprev
p649
F25.17
sVcaps
p650
F25.2
ssg24
F9.653906999999998
sVmillis
p651
I303122
sg26
g27
(S"\x07\xdc\x06\x11\x151'\x00N\x02"
p652
tp653
Rp654
sa(dp655
Vmachine
p656
Vshunt
p657
sVdata
p658
(dp659
Vinverter
p660
I00
sVnRelaysOn
p661
I0
sVprev
p662
F25.17
sVcaps
p663
F25.2
ssg24
F9.856547
sVmillis
p664
I303324
sg26
g27
(S"\x07\xdc\x06\x11\x151'\x03e\x92"
p665
tp666
Rp667
sa(dp668
Vmachine
p669
Vshunt
p670
sVdata
p671
(dp672
Vinverter
p673
I00
sVnRelaysOn
p674
I0
sVprev
p675
F25.17
sVcaps
p676
F25.22
ssg24
F10.058421999999998
sVmillis
p677
I303525
sg26
g27
(S"\x07\xdc\x06\x11\x151'\x06z%"
p678
tp679
Rp680
sa(dp681
Vmachine
p682
Vshunt
p683
sVdata
p684
(dp685
Vinverter
p686
I00
sVnRelaysOn
p687
I0
sVprev
p688
F25.22
sVcaps
p689
F25.22
ssg24
F10.259997
sVmillis
p690
I303725
sg26
g27
(S"\x07\xdc\x06\x11\x151'\t\x8d\x8c"
p691
tp692
Rp693
sa(dp694
Vmachine
p695
Vshunt
p696
sVdata
p697
(dp698
Vinverter
p699
I00
sVnRelaysOn
p700
I0
sVprev
p701
F25.22
sVcaps
p702
F25.23
ssg24
F10.461274000000001
sVmillis
p703
I303927
sg26
g27
(S"\x07\xdc\x06\x11\x151'\x0c\x9f\xc9"
p704
tp705
Rp706
sa(dp707
Vmachine
p708
Vshunt
p709
sVdata
p710
(dp711
Vinverter
p712
I00
sVnRelaysOn
p713
I0
sVprev
p714
F25.22
sVcaps
p715
F25.26
ssg24
F10.664083
sVmillis
p716
I304128
sg26
g27
(S'\x07\xdc\x06\x11\x151(\x00u\xc2'
p717
tp718
Rp719
sa(dp720
Vmachine
p721
Vshunt
p722
sVdata
p723
(dp724
Vinverter
p725
I00
sVnRelaysOn
p726
I0
sVprev
p727
F25.22
sVcaps
p728
F25.25
ssg24
F10.866092
sVmillis
p729
I304330
sg26
g27
(S'\x07\xdc\x06\x11\x151(\x03\x8a\xdb'
p730
tp731
Rp732
sa(dp733
Vmachine
p734
Vshunt
p735
sVdata
p736
(dp737
Vinverter
p738
I00
sVnRelaysOn
p739
I0
sVprev
p740
F25.22
sVcaps
p741
F25.26
ssg24
F11.058181
sVmillis
p742
I304530
sg26
g27
(S'\x07\xdc\x06\x11\x151(\x06y4'
p743
tp744
Rp745
sa(dp746
Vmachine
p747
Vshunt
p748
sVdata
p749
(dp750
Vinverter
p751
I00
sVnRelaysOn
p752
I0
sVprev
p753
F25.26
sVcaps
p754
F25.26
ssg24
F11.260060999999999
sVmillis
p755
I304732
sg26
g27
(S'\x07\xdc\x06\x11\x151(\t\x8d\xcc'
p756
tp757
Rp758
sa(dp759
Vmachine
p760
Vshunt
p761
sVdata
p762
(dp763
Vinverter
p764
I00
sVnRelaysOn
p765
I0
sVprev
p766
F25.26
sVcaps
p767
F25.26
ssg24
F11.461899
sVmillis
p768
I304932
sg26
g27
(S'\x07\xdc\x06\x11\x151(\x0c\xa2:'
p769
tp770
Rp771
sa(dp772
Vmachine
p773
Vshunt
p774
sVdata
p775
(dp776
Vinverter
p777
I00
sVnRelaysOn
p778
I0
sVprev
p779
F25.26
sVcaps
p780
F25.26
ssg24
F11.663772
sVmillis
p781
I305133
sg26
g27
(S'\x07\xdc\x06\x11\x151)\x00t\x8b'
p782
tp783
Rp784
sa(dp785
Vmachine
p786
Vshunt
p787
sVdata
p788
(dp789
Vinverter
p790
I00
sVnRelaysOn
p791
I0
sVprev
p792
F25.26
sVcaps
p793
F25.27
ssg24
F11.865698
sVmillis
p794
I305335
sg26
g27
(S'\x07\xdc\x06\x11\x151)\x03\x89Q'
p795
tp796
Rp797
sa(dp798
Vmachine
p799
Vshunt
p800
sVdata
p801
(dp802
Vinverter
p803
I00
sVnRelaysOn
p804
I0
sVprev
p805
F25.26
sVcaps
p806
F25.26
ssg24
F12.067739000000001
sVmillis
p807
I305536
sg26
g27
(S'\x07\xdc\x06\x11\x151)\x06\x9e\x8a'
p808
tp809
Rp810
sa(dp811
Vmachine
p812
Vshunt
p813
sVdata
p814
(dp815
Vinverter
p816
I00
sVnRelaysOn
p817
I0
sVprev
p818
F25.26
sVcaps
p819
F25.27
ssg24
F12.269688
sVmillis
p820
I305738
sg26
g27
(S'\x07\xdc\x06\x11\x151)\t\xb3g'
p821
tp822
Rp823
sa(dp824
Vmachine
p825
Vshunt
p826
sVdata
p827
(dp828
Vinverter
p829
I00
sVnRelaysOn
p830
I0
sVprev
p831
F25.26
sVcaps
p832
F25.28
ssg24
F12.471428999999999
sVmillis
p833
I305938
sg26
g27
(S'\x07\xdc\x06\x11\x151)\x0c\xc7t'
p834
tp835
Rp836
sa(dp837
Vmachine
p838
Vshunt
p839
sVdata
p840
(dp841
Vinverter
p842
I00
sVnRelaysOn
p843
I0
sVprev
p844
F25.26
sVcaps
p845
F25.31
ssg24
F12.672181
sVmillis
p846
I306140
sg26
g27
(S'\x07\xdc\x06\x11\x151*\x00\x95d'
p847
tp848
Rp849
sa(dp850
Vmachine
p851
Vshunt
p852
sVdata
p853
(dp854
Vinverter
p855
I00
sVnRelaysOn
p856
I0
sVprev
p857
F25.26
sVcaps
p858
F25.29
ssg24
F12.875254
sVmillis
p859
I306340
sg26
g27
(S'\x07\xdc\x06\x11\x151*\x03\xae\xa5'
p860
tp861
Rp862
sa(dp863
Vmachine
p864
Vshunt
p865
sVdata
p866
(dp867
Vinverter
p868
I00
sVnRelaysOn
p869
I0
sVprev
p870
F25.26
sVcaps
p871
F25.31
ssg24
F13.077074000000001
sVmillis
p872
I306542
sg26
g27
(S'\x07\xdc\x06\x11\x151*\x06\xc3\x01'
p873
tp874
Rp875
sa(dp876
Vmachine
p877
Vshunt
p878
sVdata
p879
(dp880
Vinverter
p881
I00
sVnRelaysOn
p882
I0
sVprev
p883
F25.31
sVcaps
p884
F25.32
ssg24
F13.27906
sVmillis
p885
I306743
sg26
g27
(S'\x07\xdc\x06\x11\x151*\t\xd8\x03'
p886
tp887
Rp888
sa(dp889
Vmachine
p890
Vshunt
p891
sVdata
p892
(dp893
Vinverter
p894
I00
sVnRelaysOn
p895
I0
sVprev
p896
F25.31
sVcaps
p897
F25.32
ssg24
F13.481074000000001
sVmillis
p898
I306945
sg26
g27
(S'\x07\xdc\x06\x11\x151*\x0c\xed!'
p899
tp900
Rp901
sa(dp902
Vmachine
p903
Vshunt
p904
sVdata
p905
(dp906
Vinverter
p907
I00
sVnRelaysOn
p908
I0
sVprev
p909
F25.31
sVcaps
p910
F25.33
ssg24
F13.68293
sVmillis
p911
I307146
sg26
g27
(S'\x07\xdc\x06\x11\x151+\x00\xbfa'
p912
tp913
Rp914
sa(dp915
Vmachine
p916
Vshunt
p917
sVdata
p918
(dp919
Vinverter
p920
I00
sVnRelaysOn
p921
I0
sVprev
p922
F25.31
sVcaps
p923
F25.33
ssg24
F13.875017000000001
sVmillis
p924
I307346
sg26
g27
(S'\x07\xdc\x06\x11\x151+\x03\xad\xb8'
p925
tp926
Rp927
sa(dp928
Vmachine
p929
Vshunt
p930
sVdata
p931
(dp932
Vinverter
p933
I00
sVnRelaysOn
p934
I0
sVprev
p935
F25.31
sVcaps
p936
F25.35
ssg24
F14.076818000000001
sVmillis
p937
I307548
sg26
g27
(S'\x07\xdc\x06\x11\x151+\x06\xc2\x01'
p938
tp939
Rp940
sa(dp941
Vmachine
p942
Vshunt
p943
sVdata
p944
(dp945
Vinverter
p946
I00
sVnRelaysOn
p947
I0
sVprev
p948
F25.35
sVcaps
p949
F25.35
ssg24
F14.27811
sVmillis
p950
I307748
sg26
g27
(S'\x07\xdc\x06\x11\x151+\t\xd4M'
p951
tp952
Rp953
sa(dp954
Vmachine
p955
Vshunt
p956
sVdata
p957
(dp958
Vinverter
p959
I00
sVnRelaysOn
p960
I0
sVprev
p961
F25.35
sVcaps
p962
F25.34
ssg24
F14.480673000000001
sVmillis
p963
I307949
sg26
g27
(S'\x07\xdc\x06\x11\x151+\x0c\xeb\x90'
p964
tp965
Rp966
sa(dp967
Vmachine
p968
Vshunt
p969
sVdata
p970
(dp971
Vinverter
p972
I00
sVnRelaysOn
p973
I0
sVprev
p974
F25.35
sVcaps
p975
F25.35
ssg24
F14.681605
sVmillis
p976
I308151
sg26
g27
(S'\x07\xdc\x06\x11\x151,\x00\xba4'
p977
tp978
Rp979
sa(dp980
Vmachine
p981
Vshunt
p982
sVdata
p983
(dp984
Vinverter
p985
I00
sVnRelaysOn
p986
I0
sVprev
p987
F25.35
sVcaps
p988
F25.33
ssg24
F14.883528
sVmillis
p989
I308353
sg26
g27
(S'\x07\xdc\x06\x11\x151,\x03\xce\xf7'
p990
tp991
Rp992
sa(dp993
Vmachine
p994
Vshunt
p995
sVdata
p996
(dp997
Vinverter
p998
I00
sVnRelaysOn
p999
I0
sVprev
p1000
F25.35
sVcaps
p1001
F25.35
ssg24
F15.085552999999999
sVmillis
p1002
I308554
sg26
g27
(S'\x07\xdc\x06\x11\x151,\x06\xe4 '
p1003
tp1004
Rp1005
sa(dp1006
Vmachine
p1007
Vshunt
p1008
sVdata
p1009
(dp1010
Vinverter
p1011
I00
sVnRelaysOn
p1012
I0
sVprev
p1013
F25.35
sVcaps
p1014
F25.37
ssg24
F15.287346000000001
sVmillis
p1015
I308754
sg26
g27
(S'\x07\xdc\x06\x11\x151,\t\xf8a'
p1016
tp1017
Rp1018
sa(dp1019
Vmachine
p1020
Vshunt
p1021
sVdata
p1022
(dp1023
Vinverter
p1024
I00
sVnRelaysOn
p1025
I0
sVprev
p1026
F25.35
sVcaps
p1027
F25.36
ssg24
F15.489257
sVmillis
p1028
I308956
sg26
g27
(S'\x07\xdc\x06\x11\x151,\r\r\x18'
p1029
tp1030
Rp1031
sa(dp1032
Vmachine
p1033
Vshunt
p1034
sVdata
p1035
(dp1036
Vinverter
p1037
I00
sVnRelaysOn
p1038
I0
sVprev
p1039
F25.35
sVcaps
p1040
F25.38
ssg24
F15.691093
sVmillis
p1041
I309156
sg26
g27
(S'\x07\xdc\x06\x11\x151-\x00\xdfD'
p1042
tp1043
Rp1044
sa(dp1045
Vmachine
p1046
Vshunt
p1047
sVdata
p1048
(dp1049
Vinverter
p1050
I00
sVnRelaysOn
p1051
I0
sVprev
p1052
F25.35
sVcaps
p1053
F25.38
ssg24
F15.892059000000001
sVmillis
p1054
I309357
sg26
g27
(S'\x07\xdc\x06\x11\x151-\x03\xf0J'
p1055
tp1056
Rp1057
sa(dp1058
Vmachine
p1059
Vshunt
p1060
sVdata
p1061
(dp1062
Vinverter
p1063
I00
sVnRelaysOn
p1064
I0
sVprev
p1065
F25.35
sVcaps
p1066
F25.39
ssg24
F16.09395
sVmillis
p1067
I309559
sg26
g27
(S'\x07\xdc\x06\x11\x151-\x07\x04\xed'
p1068
tp1069
Rp1070
sa(dp1071
Vmachine
p1072
Vshunt
p1073
sVdata
p1074
(dp1075
Vinverter
p1076
I00
sVnRelaysOn
p1077
I0
sVprev
p1078
F25.39
sVcaps
p1079
F25.4
ssg24
F16.286786999999997
sVmillis
p1080
I309760
sg26
g27
(S'\x07\xdc\x06\x11\x151-\t\xf62'
p1081
tp1082
Rp1083
sa(dp1084
Vmachine
p1085
Vshunt
p1086
sVdata
p1087
(dp1088
Vinverter
p1089
I00
sVnRelaysOn
p1090
I0
sVprev
p1091
F25.39
sVcaps
p1092
F25.41
ssg24
F16.489888999999998
sVmillis
p1093
I309962
sg26
g27
(S'\x07\xdc\x06\x11\x151-\r\x0f\x90'
p1094
tp1095
Rp1096
sa(dp1097
Vmachine
p1098
Vshunt
p1099
sVdata
p1100
(dp1101
Vinverter
p1102
I00
sVnRelaysOn
p1103
I0
sVprev
p1104
F25.39
sVcaps
p1105
F25.42
ssg24
F16.691694
sVmillis
p1106
I310162
sg26
g27
(S'\x07\xdc\x06\x11\x151.\x00\xe1\x9d'
p1107
tp1108
Rp1109
sa(dp1110
Vmachine
p1111
Vshunt
p1112
sVdata
p1113
(dp1114
Vinverter
p1115
I00
sVnRelaysOn
p1116
I0
sVprev
p1117
F25.39
sVcaps
p1118
F25.42
ssg24
F16.893622999999998
sVmillis
p1119
I310364
sg26
g27
(S'\x07\xdc\x06\x11\x151.\x03\xf6f'
p1120
tp1121
Rp1122
sa(dp1123
Vmachine
p1124
Vshunt
p1125
sVdata
p1126
(dp1127
Vinverter
p1128
I00
sVnRelaysOn
p1129
I0
sVprev
p1130
F25.39
sVcaps
p1131
F25.42
ssg24
F17.095571999999997
sVmillis
p1132
I310564
sg26
g27
(S'\x07\xdc\x06\x11\x151.\x07\x0bC'
p1133
tp1134
Rp1135
sa(dp1136
Vmachine
p1137
Vshunt
p1138
sVdata
p1139
(dp1140
Vinverter
p1141
I00
sVnRelaysOn
p1142
I0
sVprev
p1143
F25.42
sVcaps
p1144
F25.44
ssg24
F17.297375000000002
sVmillis
p1145
I310765
sg26
g27
(S'\x07\xdc\x06\x11\x151.\n\x1f\x8e'
p1146
tp1147
Rp1148
sa(dp1149
Vmachine
p1150
Vshunt
p1151
sVdata
p1152
(dp1153
Vinverter
p1154
I00
sVnRelaysOn
p1155
I0
sVprev
p1156
F25.42
sVcaps
p1157
F25.43
ssg24
F17.499325
sVmillis
p1158
I310967
sg26
g27
(S'\x07\xdc\x06\x11\x151.\r4l'
p1159
tp1160
Rp1161
sa(dp1162
Vmachine
p1163
Vshunt
p1164
sVdata
p1165
(dp1166
Vinverter
p1167
I00
sVnRelaysOn
p1168
I0
sVprev
p1169
F25.42
sVcaps
p1170
F25.44
ssg24
F17.700162
sVmillis
p1171
I311168
sg26
g27
(S'\x07\xdc\x06\x11\x151/\x01\x02\xb1'
p1172
tp1173
Rp1174
sa(dp1175
Vmachine
p1176
Vshunt
p1177
sVdata
p1178
(dp1179
Vinverter
p1180
I00
sVnRelaysOn
p1181
I0
sVprev
p1182
F25.42
sVcaps
p1183
F25.44
ssg24
F17.903278
sVmillis
p1184
I311370
sg26
g27
(S'\x07\xdc\x06\x11\x151/\x04\x1c\x1d'
p1185
tp1186
Rp1187
sa(dp1188
Vmachine
p1189
Vshunt
p1190
sVdata
p1191
(dp1192
Vinverter
p1193
I00
sVnRelaysOn
p1194
I0
sVprev
p1195
F25.42
sVcaps
p1196
F25.44
ssg24
F18.105078
sVmillis
p1197
I311570
sg26
g27
(S'\x07\xdc\x06\x11\x151/\x070e'
p1198
tp1199
Rp1200
sa(dp1201
Vmachine
p1202
Vshunt
p1203
sVdata
p1204
(dp1205
Vinverter
p1206
I00
sVnRelaysOn
p1207
I0
sVprev
p1208
F25.44
sVcaps
p1209
F25.44
ssg24
F18.306932000000003
sVmillis
p1210
I311772
sg26
g27
(S'\x07\xdc\x06\x11\x151/\nD\xe3'
p1211
tp1212
Rp1213
sa(dp1214
Vmachine
p1215
Vshunt
p1216
sVdata
p1217
(dp1218
Vinverter
p1219
I00
sVnRelaysOn
p1220
I0
sVprev
p1221
F25.44
sVcaps
p1222
F25.44
ssg24
F18.508837999999997
sVmillis
p1223
I311972
sg26
g27
(S'\x07\xdc\x06\x11\x151/\rY\x95'
p1224
tp1225
Rp1226
sa(dp1227
Vmachine
p1228
Vshunt
p1229
sVdata
p1230
(dp1231
Vinverter
p1232
I00
sVnRelaysOn
p1233
I0
sVprev
p1234
F25.44
sVcaps
p1235
F25.46
ssg24
F18.700696
sVmillis
p1236
I312173
sg26
g27
(S'\x07\xdc\x06\x11\x1510\x01\x04\xc7'
p1237
tp1238
Rp1239
sa(dp1240
Vmachine
p1241
Vshunt
p1242
sVdata
p1243
(dp1244
Vinverter
p1245
I00
sVnRelaysOn
p1246
I0
sVprev
p1247
F25.44
sVcaps
p1248
F25.46
ssg24
F18.903644
sVmillis
p1249
I312375
sg26
g27
(S'\x07\xdc\x06\x11\x1510\x04\x1d\x8b'
p1250
tp1251
Rp1252
sa(dp1253
Vmachine
p1254
Vshunt
p1255
sVdata
p1256
(dp1257
Vinverter
p1258
I00
sVnRelaysOn
p1259
I0
sVprev
p1260
F25.44
sVcaps
p1261
F25.46
ssg24
F19.105589000000002
sVmillis
p1262
I312576
sg26
g27
(S'\x07\xdc\x06\x11\x1510\x072d'
p1263
tp1264
Rp1265
sa(dp1266
Vmachine
p1267
Vshunt
p1268
sVdata
p1269
(dp1270
Vinverter
p1271
I00
sVnRelaysOn
p1272
I0
sVprev
p1273
F25.46
sVcaps
p1274
F25.47
ssg24
F19.307530999999997
sVmillis
p1275
I312778
sg26
g27
(S'\x07\xdc\x06\x11\x1510\nG:'
p1276
tp1277
Rp1278
sa(dp1279
Vmachine
p1280
Vshunt
p1281
sVdata
p1282
(dp1283
Vinverter
p1284
I00
sVnRelaysOn
p1285
I0
sVprev
p1286
F25.46
sVcaps
p1287
F25.47
ssg24
F19.509407000000003
sVmillis
p1288
I312978
sg26
g27
(S'\x07\xdc\x06\x11\x1510\r[\xce'
p1289
tp1290
Rp1291
sa(dp1292
Vmachine
p1293
Vshunt
p1294
sVdata
p1295
(dp1296
Vinverter
p1297
I00
sVnRelaysOn
p1298
I0
sVprev
p1299
F25.46
sVcaps
p1300
F25.48
ssg24
F19.711356000000002
sVmillis
p1301
I313180
sg26
g27
(S'\x07\xdc\x06\x11\x1511\x01.k'
p1302
tp1303
Rp1304
sa(dp1305
Vmachine
p1306
Vshunt
p1307
sVdata
p1308
(dp1309
Vinverter
p1310
I00
sVnRelaysOn
p1311
I0
sVprev
p1312
F25.46
sVcaps
p1313
F25.49
ssg24
F19.913229
sVmillis
p1314
I313381
sg26
g27
(S'\x07\xdc\x06\x11\x1511\x04B\xfc'
p1315
tp1316
Rp1317
sa(dp1318
Vmachine
p1319
Vshunt
p1320
sVdata
p1321
(dp1322
Vinverter
p1323
I00
sVnRelaysOn
p1324
I0
sVprev
p1325
F25.46
sVcaps
p1326
F25.47
ssg24
F20.115139999999997
sVmillis
p1327
I313581
sg26
g27
(S'\x07\xdc\x06\x11\x1511\x07W\xb3'
p1328
tp1329
Rp1330
sa(dp1331
Vmachine
p1332
Vshunt
p1333
sVdata
p1334
(dp1335
Vinverter
p1336
I00
sVnRelaysOn
p1337
I0
sVprev
p1338
F25.47
sVcaps
p1339
F25.48
ssg24
F20.316993000000004
sVmillis
p1340
I313783
sg26
g27
(S'\x07\xdc\x06\x11\x1511\nl0'
p1341
tp1342
Rp1343
sa(dp1344
Vmachine
p1345
Vshunt
p1346
sVdata
p1347
(dp1348
Vinverter
p1349
I00
sVnRelaysOn
p1350
I0
sVprev
p1351
F25.47
sVcaps
p1352
F25.48
ssg24
F20.518945000000002
sVmillis
p1353
I313984
sg26
g27
(S'\x07\xdc\x06\x11\x1511\r\x81\x10'
p1354
tp1355
Rp1356
sa(dp1357
Vmachine
p1358
Vshunt
p1359
sVdata
p1360
(dp1361
Vinverter
p1362
I00
sVnRelaysOn
p1363
I0
sVprev
p1364
F25.47
sVcaps
p1365
F25.48
ssg24
F20.720948999999997
sVmillis
p1366
I314186
sg26
g27
(S'\x07\xdc\x06\x11\x1512\x01S\xe4'
p1367
tp1368
Rp1369
sa(dp1370
Vmachine
p1371
Vshunt
p1372
sVdata
p1373
(dp1374
Vinverter
p1375
I00
sVnRelaysOn
p1376
I0
sVprev
p1377
F25.47
sVcaps
p1378
F25.48
ssg24
F20.922733
sVmillis
p1379
I314386
sg26
g27
(S'\x07\xdc\x06\x11\x1512\x04h\x1c'
p1380
tp1381
Rp1382
sa(dp1383
Vmachine
p1384
Vshunt
p1385
sVdata
p1386
(dp1387
Vinverter
p1388
I00
sVnRelaysOn
p1389
I0
sVprev
p1390
F25.47
sVcaps
p1391
F25.49
ssg24
F21.114344000000003
sVmillis
p1392
I314588
sg26
g27
(S'\x07\xdc\x06\x11\x1512\x07T\x97'
p1393
tp1394
Rp1395
sa(dp1396
Vmachine
p1397
Vshunt
p1398
sVdata
p1399
(dp1400
Vinverter
p1401
I00
sVnRelaysOn
p1402
I0
sVprev
p1403
F25.49
sVcaps
p1404
F25.5
ssg24
F21.317617
sVmillis
p1405
I314789
sg26
g27
(S'\x07\xdc\x06\x11\x1512\nn\xa0'
p1406
tp1407
Rp1408
sa(dp1409
Vmachine
p1410
Vshunt
p1411
sVdata
p1412
(dp1413
Vinverter
p1414
I00
sVnRelaysOn
p1415
I0
sVprev
p1416
F25.49
sVcaps
p1417
F25.5
ssg24
F21.519388999999997
sVmillis
p1418
I314989
sg26
g27
(S'\x07\xdc\x06\x11\x1512\r\x82\xcc'
p1419
tp1420
Rp1421
sa(dp1422
Vmachine
p1423
Vshunt
p1424
sVdata
p1425
(dp1426
Vinverter
p1427
I00
sVnRelaysOn
p1428
I0
sVprev
p1429
F25.49
sVcaps
p1430
F25.52
ssg24
F21.721378
sVmillis
p1431
I315191
sg26
g27
(S'\x07\xdc\x06\x11\x1513\x01U\x91'
p1432
tp1433
Rp1434
sa(dp1435
Vmachine
p1436
Vshunt
p1437
sVdata
p1438
(dp1439
Vinverter
p1440
I00
sVnRelaysOn
p1441
I0
sVprev
p1442
F25.49
sVcaps
p1443
F25.52
ssg24
F21.923223999999998
sVmillis
p1444
I315393
sg26
g27
(S'\x07\xdc\x06\x11\x1513\x04j\x07'
p1445
tp1446
Rp1447
sa(dp1448
Vmachine
p1449
Vshunt
p1450
sVdata
p1451
(dp1452
Vinverter
p1453
I00
sVnRelaysOn
p1454
I0
sVprev
p1455
F25.49
sVcaps
p1456
F25.52
ssg24
F22.123129999999996
sVmillis
p1457
I315594
sg26
g27
(S'\x07\xdc\x06\x11\x1513\x07v\xe9'
p1458
tp1459
Rp1460
sa(dp1461
Vmachine
p1462
Vshunt
p1463
sVdata
p1464
(dp1465
Vinverter
p1466
I00
sVnRelaysOn
p1467
I0
sVprev
p1468
F25.52
sVcaps
p1469
F25.52
ssg24
F22.326107999999998
sVmillis
p1470
I315794
sg26
g27
(S'\x07\xdc\x06\x11\x1513\n\x8f\xcb'
p1471
tp1472
Rp1473
sa(dp1474
Vmachine
p1475
Vshunt
p1476
sVdata
p1477
(dp1478
Vinverter
p1479
I00
sVnRelaysOn
p1480
I0
sVprev
p1481
F25.52
sVcaps
p1482
F25.52
ssg24
F22.528059999999996
sVmillis
p1483
I315996
sg26
g27
(S'\x07\xdc\x06\x11\x1513\r\xa4\xab'
p1484
tp1485
Rp1486
sa(dp1487
Vmachine
p1488
Vshunt
p1489
sVdata
p1490
(dp1491
Vinverter
p1492
I00
sVnRelaysOn
p1493
I0
sVprev
p1494
F25.52
sVcaps
p1495
F25.52
ssg24
F22.729974
sVmillis
p1496
I316196
sg26
g27
(S'\x07\xdc\x06\x11\x1514\x01w%'
p1497
tp1498
Rp1499
sa(dp1500
Vmachine
p1501
Vshunt
p1502
sVdata
p1503
(dp1504
Vinverter
p1505
I00
sVnRelaysOn
p1506
I0
sVprev
p1507
F25.52
sVcaps
p1508
F25.52
ssg24
F22.93184
sVmillis
p1509
I316397
sg26
g27
(S'\x07\xdc\x06\x11\x1514\x04\x8b\xaf'
p1510
tp1511
Rp1512
sa(dp1513
Vmachine
p1514
Vshunt
p1515
sVdata
p1516
(dp1517
Vinverter
p1518
I00
sVnRelaysOn
p1519
I0
sVprev
p1520
F25.52
sVcaps
p1521
F25.52
ssg24
F23.134073
sVmillis
p1522
I316599
sg26
g27
(S'\x07\xdc\x06\x11\x1514\x07\xa1\xa8'
p1523
tp1524
Rp1525
sa(dp1526
Vmachine
p1527
Vshunt
p1528
sVdata
p1529
(dp1530
Vinverter
p1531
I00
sVnRelaysOn
p1532
I0
sVprev
p1533
F25.52
sVcaps
p1534
F25.54
ssg24
F23.335546
sVmillis
p1535
I316800
sg26
g27
(S'\x07\xdc\x06\x11\x1514\n\xb4\xa9'
p1536
tp1537
Rp1538
sa(dp1539
Vmachine
p1540
Vshunt
p1541
sVdata
p1542
(dp1543
Vinverter
p1544
I00
sVnRelaysOn
p1545
I0
sVprev
p1546
F25.52
sVcaps
p1547
F25.53
ssg24
F23.537600999999995
sVmillis
p1548
I317002
sg26
g27
(S'\x07\xdc\x06\x11\x1514\r\xc9\xf0'
p1549
tp1550
Rp1551
sa(dp1552
Vmachine
p1553
Vshunt
p1554
sVdata
p1555
(dp1556
Vinverter
p1557
I00
sVnRelaysOn
p1558
I0
sVprev
p1559
F25.52
sVcaps
p1560
F25.54
ssg24
F23.729613
sVmillis
p1561
I317202
sg26
g27
(S'\x07\xdc\x06\x11\x1515\x01u\xbc'
p1562
tp1563
Rp1564
sa(dp1565
Vmachine
p1566
Vshunt
p1567
sVdata
p1568
(dp1569
Vinverter
p1570
I00
sVnRelaysOn
p1571
I0
sVprev
p1572
F25.52
sVcaps
p1573
F25.54
ssg24
F23.931553
sVmillis
p1574
I317404
sg26
g27
(S'\x07\xdc\x06\x11\x1515\x04\x8a\x90'
p1575
tp1576
Rp1577
sa(dp1578
Vmachine
p1579
Vshunt
p1580
sVdata
p1581
(dp1582
Vinverter
p1583
I00
sVnRelaysOn
p1584
I0
sVprev
p1585
F25.52
sVcaps
p1586
F25.56
ssg24
F24.133372
sVmillis
p1587
I317605
sg26
g27
(S'\x07\xdc\x06\x11\x1515\x07\x9e\xeb'
p1588
tp1589
Rp1590
sa(dp1591
Vmachine
p1592
Vshunt
p1593
sVdata
p1594
(dp1595
Vinverter
p1596
I00
sVnRelaysOn
p1597
I0
sVprev
p1598
F25.56
sVcaps
p1599
F25.57
ssg24
F24.335316999999996
sVmillis
p1600
I317805
sg26
g27
(S'\x07\xdc\x06\x11\x1515\n\xb3\xc4'
p1601
tp1602
Rp1603
sa(dp1604
Vmachine
p1605
Vshunt
p1606
sVdata
p1607
(dp1608
Vinverter
p1609
I00
sVnRelaysOn
p1610
I0
sVprev
p1611
F25.56
sVcaps
p1612
F25.56
ssg24
F24.537126999999998
sVmillis
p1613
I318007
sg26
g27
(S'\x07\xdc\x06\x11\x1515\r\xc8\x16'
p1614
tp1615
Rp1616
sa(dp1617
Vmachine
p1618
Vshunt
p1619
sVdata
p1620
(dp1621
Vinverter
p1622
I00
sVnRelaysOn
p1623
I0
sVprev
p1624
F25.56
sVcaps
p1625
F25.59
ssg24
F24.739118999999995
sVmillis
p1626
I318208
sg26
g27
(S'\x07\xdc\x06\x11\x1516\x01\x9a\xde'
p1627
tp1628
Rp1629
sa(dp1630
Vmachine
p1631
Vshunt
p1632
sVdata
p1633
(dp1634
Vinverter
p1635
I00
sVnRelaysOn
p1636
I0
sVprev
p1637
F25.56
sVcaps
p1638
F25.58
ssg24
F24.941213999999995
sVmillis
p1639
I318410
sg26
g27
(S'\x07\xdc\x06\x11\x1516\x04\xb0M'
p1640
tp1641
Rp1642
sa(dp1643
Vmachine
p1644
Vshunt
p1645
sVdata
p1646
(dp1647
Vinverter
p1648
I00
sVnRelaysOn
p1649
I0
sVprev
p1650
F25.56
sVcaps
p1651
F25.58
ssg24
F25.142916999999997
sVmillis
p1652
I318610
sg26
g27
(S'\x07\xdc\x06\x11\x1516\x07\xc44'
p1653
tp1654
Rp1655
sa(dp1656
Vmachine
p1657
Vshunt
p1658
sVdata
p1659
(dp1660
Vinverter
p1661
I00
sVnRelaysOn
p1662
I0
sVprev
p1663
F25.58
sVcaps
p1664
F25.6
ssg24
F25.344738999999997
sVmillis
p1665
I318812
sg26
g27
(S'\x07\xdc\x06\x11\x1516\n\xd8\x92'
p1666
tp1667
Rp1668
sa(dp1669
Vmachine
p1670
Vshunt
p1671
sVdata
p1672
(dp1673
Vinverter
p1674
I00
sVnRelaysOn
p1675
I0
sVprev
p1676
F25.58
sVcaps
p1677
F25.6
ssg24
F25.546771
sVmillis
p1678
I319012
sg26
g27
(S'\x07\xdc\x06\x11\x1516\r\xed\xc2'
p1679
tp1680
Rp1681
sa(dp1682
Vmachine
p1683
Vshunt
p1684
sVdata
p1685
(dp1686
Vinverter
p1687
I00
sVnRelaysOn
p1688
I0
sVprev
p1689
F25.58
sVcaps
p1690
F25.61
ssg24
F25.748613
sVmillis
p1691
I319213
sg26
g27
(S'\x07\xdc\x06\x11\x1517\x01\xbf\xf4'
p1692
tp1693
Rp1694
sa(dp1695
Vmachine
p1696
Vshunt
p1697
sVdata
p1698
(dp1699
Vinverter
p1700
I00
sVnRelaysOn
p1701
I0
sVprev
p1702
F25.58
sVcaps
p1703
F25.61
ssg24
F25.950552000000002
sVmillis
p1704
I319415
sg26
g27
(S'\x07\xdc\x06\x11\x1517\x04\xd4\xc7'
p1705
tp1706
Rp1707
sa(dp1708
Vmachine
p1709
Vshunt
p1710
sVdata
p1711
(dp1712
Vinverter
p1713
I00
sVnRelaysOn
p1714
I0
sVprev
p1715
F25.58
sVcaps
p1716
F25.61
ssg24
F26.142393
sVmillis
p1717
I319616
sg26
g27
(S'\x07\xdc\x06\x11\x1517\x07\xc2('
p1718
tp1719
Rp1720
sa(dp1721
Vmachine
p1722
Vshunt
p1723
sVdata
p1724
(dp1725
Vinverter
p1726
I00
sVnRelaysOn
p1727
I0
sVprev
p1728
F25.61
sVcaps
p1729
F25.62
ssg24
F26.345394999999996
sVmillis
p1730
I319818
sg26
g27
(S'\x07\xdc\x06\x11\x1517\n\xdb"'
p1731
tp1732
Rp1733
sa(dp1734
Vmachine
p1735
Vshunt
p1736
sVdata
p1737
(dp1738
Vinverter
p1739
I00
sVnRelaysOn
p1740
I0
sVprev
p1741
F25.61
sVcaps
p1742
F25.63
ssg24
F26.545848
sVmillis
p1743
I320019
sg26
g27
(S"\x07\xdc\x06\x11\x1517\r\xea'"
p1744
tp1745
Rp1746
sa(dp1747
Vmachine
p1748
Vshunt
p1749
sVdata
p1750
(dp1751
Vinverter
p1752
I00
sVnRelaysOn
p1753
I0
sVprev
p1754
F25.61
sVcaps
p1755
F25.64
ssg24
F26.749252999999996
sVmillis
p1756
I320220
sg26
g27
(S'\x07\xdc\x06\x11\x1518\x01\xc2t'
p1757
tp1758
Rp1759
sa(dp1760
Vmachine
p1761
Vshunt
p1762
sVdata
p1763
(dp1764
Vinverter
p1765
I00
sVnRelaysOn
p1766
I0
sVprev
p1767
F25.61
sVcaps
p1768
F25.64
ssg24
F26.951178
sVmillis
p1769
I320420
sg26
g27
(S'\x07\xdc\x06\x11\x1518\x04\xd79'
p1770
tp1771
Rp1772
sa(dp1773
Vmachine
p1774
Vshunt
p1775
sVdata
p1776
(dp1777
Vinverter
p1778
I00
sVnRelaysOn
p1779
I0
sVprev
p1780
F25.61
sVcaps
p1781
F25.64
ssg24
F27.153005999999998
sVmillis
p1782
I320621
sg26
g27
(S'\x07\xdc\x06\x11\x1518\x07\xeb\x9d'
p1783
tp1784
Rp1785
sa(dp1786
Vmachine
p1787
Vshunt
p1788
sVdata
p1789
(dp1790
Vinverter
p1791
I00
sVnRelaysOn
p1792
I0
sVprev
p1793
F25.64
sVcaps
p1794
F25.66
ssg24
F27.354904999999995
sVmillis
p1795
I320823
sg26
g27
(S'\x07\xdc\x06\x11\x1518\x0b\x00H'
p1796
tp1797
Rp1798
sa(dp1799
Vmachine
p1800
Vshunt
p1801
sVdata
p1802
(dp1803
Vinverter
p1804
I00
sVnRelaysOn
p1805
I0
sVprev
p1806
F25.64
sVcaps
p1807
F25.65
ssg24
F27.556784999999998
sVmillis
p1808
I321024
sg26
g27
(S'\x07\xdc\x06\x11\x1518\x0e\x14\xe0'
p1809
tp1810
Rp1811
sa(dp1812
Vmachine
p1813
Vshunt
p1814
sVdata
p1815
(dp1816
Vinverter
p1817
I00
sVnRelaysOn
p1818
I0
sVprev
p1819
F25.64
sVcaps
p1820
F25.66
ssg24
F27.758865999999998
sVmillis
p1821
I321226
sg26
g27
(S'\x07\xdc\x06\x11\x1519\x01\xe8\x01'
p1822
tp1823
Rp1824
sa(dp1825
Vmachine
p1826
Vshunt
p1827
sVdata
p1828
(dp1829
Vinverter
p1830
I00
sVnRelaysOn
p1831
I0
sVprev
p1832
F25.64
sVcaps
p1833
F25.68
ssg24
F27.960755999999996
sVmillis
p1834
I321427
sg26
g27
(S'\x07\xdc\x06\x11\x1519\x04\xfc\xa3'
p1835
tp1836
Rp1837
sa(dp1838
Vmachine
p1839
Vshunt
p1840
sVdata
p1841
(dp1842
Vinverter
p1843
I00
sVnRelaysOn
p1844
I0
sVprev
p1845
F25.64
sVcaps
p1846
F25.68
ssg24
F28.162579
sVmillis
p1847
I321628
sg26
g27
(S'\x07\xdc\x06\x11\x1519\x08\x11\x02'
p1848
tp1849
Rp1850
sa(dp1851
Vmachine
p1852
Vshunt
p1853
sVdata
p1854
(dp1855
Vinverter
p1856
I00
sVnRelaysOn
p1857
I0
sVprev
p1858
F25.68
sVcaps
p1859
F25.7
ssg24
F28.364471
sVmillis
p1860
I321829
sg26
g27
(S'\x07\xdc\x06\x11\x1519\x0b%\xa6'
p1861
tp1862
Rp1863
sa(dp1864
Vmachine
p1865
Vshunt
p1866
sVdata
p1867
(dp1868
Vinverter
p1869
I00
sVnRelaysOn
p1870
I0
sVprev
p1871
F25.68
sVcaps
p1872
F25.69
ssg24
F28.556289999999997
sVmillis
p1873
I322029
sg26
g27
(S'\x07\xdc\x06\x11\x1519\x0e\x12\xf1'
p1874
tp1875
Rp1876
sa(dp1877
Vmachine
p1878
Vshunt
p1879
sVdata
p1880
(dp1881
Vinverter
p1882
I00
sVnRelaysOn
p1883
I0
sVprev
p1884
F25.68
sVcaps
p1885
F25.7
ssg24
F28.759341999999997
sVmillis
p1886
I322231
sg26
g27
(S'\x07\xdc\x06\x11\x151:\x01\xe9\xdd'
p1887
tp1888
Rp1889
sa(dp1890
Vmachine
p1891
Vshunt
p1892
sVdata
p1893
(dp1894
Vinverter
p1895
I00
sVnRelaysOn
p1896
I0
sVprev
p1897
F25.68
sVcaps
p1898
F25.71
ssg24
F28.961152999999996
sVmillis
p1899
I322433
sg26
g27
(S'\x07\xdc\x06\x11\x151:\x04\xfe0'
p1900
tp1901
Rp1902
sa(dp1903
Vmachine
p1904
Vshunt
p1905
sVdata
p1906
(dp1907
Vinverter
p1908
I00
sVnRelaysOn
p1909
I0
sVprev
p1910
F25.68
sVcaps
p1911
F25.71
ssg24
F29.163185
sVmillis
p1912
I322634
sg26
g27
(S'\x07\xdc\x06\x11\x151:\x08\x13`'
p1913
tp1914
Rp1915
sa(dp1916
Vmachine
p1917
Vshunt
p1918
sVdata
p1919
(dp1920
Vinverter
p1921
I00
sVnRelaysOn
p1922
I0
sVprev
p1923
F25.71
sVcaps
p1924
F25.72
ssg24
F29.365043
sVmillis
p1925
I322834
sg26
g27
(S"\x07\xdc\x06\x11\x151:\x0b'\xe2"
p1926
tp1927
Rp1928
sa(dp1929
Vmachine
p1930
Vshunt
p1931
sVdata
p1932
(dp1933
Vinverter
p1934
I00
sVnRelaysOn
p1935
I0
sVprev
p1936
F25.71
sVcaps
p1937
F25.71
ssg24
F29.566566
sVmillis
p1938
I323036
sg26
g27
(S'\x07\xdc\x06\x11\x151:\x0e;\x15'
p1939
tp1940
Rp1941
sa(dp1942
Vmachine
p1943
Vshunt
p1944
sVdata
p1945
(dp1946
Vinverter
p1947
I00
sVnRelaysOn
p1948
I0
sVprev
p1949
F25.71
sVcaps
p1950
F25.7
ssg24
F29.768853
sVmillis
p1951
I323236
sg26
g27
(S'\x07\xdc\x06\x11\x151;\x02\x0f\x04'
p1952
tp1953
Rp1954
sa(dp1955
Vmachine
p1956
Vshunt
p1957
sVdata
p1958
(dp1959
Vinverter
p1960
I00
sVnRelaysOn
p1961
I0
sVprev
p1962
F25.71
sVcaps
p1963
F25.72
ssg24
F29.970757999999996
sVmillis
p1964
I323437
sg26
g27
(S'\x07\xdc\x06\x11\x151;\x05#\xb5'
p1965
tp1966
Rp1967
sa(dp1968
Vmachine
p1969
Vshunt
p1970
sVdata
p1971
(dp1972
Vinverter
p1973
I00
sVnRelaysOn
p1974
I0
sVprev
p1975
F25.71
sVcaps
p1976
F25.72
ssg24
F30.172568999999996
sVmillis
p1977
I323639
sg26
g27
(S'\x07\xdc\x06\x11\x151;\x088\x08'
p1978
tp1979
Rp1980
sa(dp1981
Vmachine
p1982
Vshunt
p1983
sVdata
p1984
(dp1985
Vinverter
p1986
I00
sVnRelaysOn
p1987
I0
sVprev
p1988
F25.72
sVcaps
p1989
F25.74
ssg24
F30.374544999999998
sVmillis
p1990
I323840
sg26
g27
(S'\x07\xdc\x06\x11\x151;\x0bM\x00'
p1991
tp1992
Rp1993
sa(dp1994
Vmachine
p1995
Vshunt
p1996
sVdata
p1997
(dp1998
Vinverter
p1999
I00
sVnRelaysOn
p2000
I0
sVprev
p2001
F25.72
sVcaps
p2002
F25.75
ssg24
F30.576558999999996
sVmillis
p2003
I324042
sg26
g27
(S'\x07\xdc\x06\x11\x151;\x0eb\x1e'
p2004
tp2005
Rp2006
sa(dp2007
Vmachine
p2008
Vshunt
p2009
sVdata
p2010
(dp2011
Vinverter
p2012
I00
sVnRelaysOn
p2013
I0
sVprev
p2014
F25.72
sVcaps
p2015
F25.75
ssg24
F30.777313
sVmillis
p2016
I324242
sg26
g27
(S'\x07\xdc\x06\x11\x152\x00\x020\x10'
p2017
tp2018
Rp2019
sa(dp2020
Vmachine
p2021
Vshunt
p2022
sVdata
p2023
(dp2024
Vinverter
p2025
I00
sVnRelaysOn
p2026
I0
sVprev
p2027
F25.72
sVcaps
p2028
F25.75
ssg24
F30.979312
sVmillis
p2029
I324444
sg26
g27
(S'\x07\xdc\x06\x11\x152\x00\x05E\x1f'
p2030
tp2031
Rp2032
sa(dp2033
Vmachine
p2034
Vshunt
p2035
sVdata
p2036
(dp2037
Vinverter
p2038
I00
sVnRelaysOn
p2039
I0
sVprev
p2040
F25.72
sVcaps
p2041
F25.75
ssg24
F31.169951999999995
sVmillis
p2042
I324644
sg26
g27
(S'\x07\xdc\x06\x11\x152\x00\x08-\xcf'
p2043
tp2044
Rp2045
sa(dp2046
Vmachine
p2047
Vshunt
p2048
sVdata
p2049
(dp2050
Vinverter
p2051
I00
sVnRelaysOn
p2052
I0
sVprev
p2053
F25.75
sVcaps
p2054
F25.76
ssg24
F31.3741
sVmillis
p2055
I324845
sg26
g27
(S'\x07\xdc\x06\x11\x152\x00\x0bKC'
p2056
tp2057
Rp2058
sa(dp2059
Vmachine
p2060
Vshunt
p2061
sVdata
p2062
(dp2063
Vinverter
p2064
I00
sVnRelaysOn
p2065
I0
sVprev
p2066
F25.75
sVcaps
p2067
F25.77
ssg24
F31.575893999999998
sVmillis
p2068
I325047
sg26
g27
(S'\x07\xdc\x06\x11\x152\x00\x0e_\x85'
p2069
tp2070
Rp2071
sa(dp2072
Vmachine
p2073
Vshunt
p2074
sVdata
p2075
(dp2076
Vinverter
p2077
I00
sVnRelaysOn
p2078
I0
sVprev
p2079
F25.75
sVcaps
p2080
F25.76
ssg24
F31.776998
sVmillis
p2081
I325248
sg26
g27
(S'\x07\xdc\x06\x11\x152\x01\x02.\xd5'
p2082
tp2083
Rp2084
sa(dp2085
Vmachine
p2086
Vshunt
p2087
sVdata
p2088
(dp2089
Vinverter
p2090
I00
sVnRelaysOn
p2091
I0
sVprev
p2092
F25.75
sVcaps
p2093
F25.79
ssg24
F31.979191999999998
sVmillis
p2094
I325450
sg26
g27
(S'\x07\xdc\x06\x11\x152\x01\x05D\xa7'
p2095
tp2096
Rp2097
sa(dp2098
Vmachine
p2099
Vshunt
p2100
sVdata
p2101
(dp2102
Vinverter
p2103
I00
sVnRelaysOn
p2104
I0
sVprev
p2105
F25.75
sVcaps
p2106
F25.78
ssg24
F32.181657
sVmillis
p2107
I325650
sg26
g27
(S'\x07\xdc\x06\x11\x152\x01\x08[\x88'
p2108
tp2109
Rp2110
sa(dp2111
Vmachine
p2112
Vshunt
p2113
sVdata
p2114
(dp2115
Vinverter
p2116
I00
sVnRelaysOn
p2117
I0
sVprev
p2118
F25.78
sVcaps
p2119
F25.78
ssg24
F32.383556999999996
sVmillis
p2120
I325852
sg26
g27
(S'\x07\xdc\x06\x11\x152\x01\x0bp4'
p2121
tp2122
Rp2123
sa(dp2124
Vmachine
p2125
Vshunt
p2126
sVdata
p2127
(dp2128
Vinverter
p2129
I00
sVnRelaysOn
p2130
I0
sVprev
p2131
F25.78
sVcaps
p2132
F25.79
ssg24
F32.585507
sVmillis
p2133
I326052
sg26
g27
(S'\x07\xdc\x06\x11\x152\x01\x0e\x85\x12'
p2134
tp2135
Rp2136
sa(dp2137
Vmachine
p2138
Vshunt
p2139
sVdata
p2140
(dp2141
Vinverter
p2142
I00
sVnRelaysOn
p2143
I0
sVprev
p2144
F25.78
sVcaps
p2145
F25.78
ssg24
F32.787355
sVmillis
p2146
I326254
sg26
g27
(S'\x07\xdc\x06\x11\x152\x02\x02WJ'
p2147
tp2148
Rp2149
sa(dp2150
Vmachine
p2151
Vshunt
p2152
sVdata
p2153
(dp2154
Vinverter
p2155
I00
sVnRelaysOn
p2156
I0
sVprev
p2157
F25.78
sVcaps
p2158
F25.8
ssg24
F32.989352
sVmillis
p2159
I326455
sg26
g27
(S'\x07\xdc\x06\x11\x152\x02\x05lW'
p2160
tp2161
Rp2162
sa(dp2163
Vmachine
p2164
Vshunt
p2165
sVdata
p2166
(dp2167
Vinverter
p2168
I00
sVnRelaysOn
p2169
I0
sVprev
p2170
F25.78
sVcaps
p2171
F25.8
ssg24
F33.191111
sVmillis
p2172
I326656
sg26
g27
(S'\x07\xdc\x06\x11\x152\x02\x08\x80v'
p2173
tp2174
Rp2175
sa(dp2176
Vmachine
p2177
Vshunt
p2178
sVdata
p2179
(dp2180
Vinverter
p2181
I00
sVnRelaysOn
p2182
I0
sVprev
p2183
F25.8
sVcaps
p2184
F25.8
ssg24
F33.393144
sVmillis
p2185
I326858
sg26
g27
(S'\x07\xdc\x06\x11\x152\x02\x0b\x95\xa7'
p2186
tp2187
Rp2188
sa(dp2189
Vmachine
p2190
Vshunt
p2191
sVdata
p2192
(dp2193
Vinverter
p2194
I00
sVnRelaysOn
p2195
I0
sVprev
p2196
F25.8
sVcaps
p2197
F25.81
ssg24
F33.585043999999996
sVmillis
p2198
I327058
sg26
g27
(S'\x07\xdc\x06\x11\x152\x02\x0e\x83C'
p2199
tp2200
Rp2201
sa(dp2202
Vmachine
p2203
Vshunt
p2204
sVdata
p2205
(dp2206
Vinverter
p2207
I00
sVnRelaysOn
p2208
I0
sVprev
p2209
F25.8
sVcaps
p2210
F25.81
ssg24
F33.788028
sVmillis
p2211
I327260
sg26
g27
(S'\x07\xdc\x06\x11\x152\x03\x02Y\xeb'
p2212
tp2213
Rp2214
sa(dp2215
Vmachine
p2216
Vshunt
p2217
sVdata
p2218
(dp2219
Vinverter
p2220
I00
sVnRelaysOn
p2221
I0
sVprev
p2222
F25.8
sVcaps
p2223
F25.83
ssg24
F33.989885
sVmillis
p2224
I327460
sg26
g27
(S'\x07\xdc\x06\x11\x152\x03\x05nl'
p2225
tp2226
Rp2227
sa(dp2228
Vmachine
p2229
Vshunt
p2230
sVdata
p2231
(dp2232
Vinverter
p2233
I00
sVnRelaysOn
p2234
I0
sVprev
p2235
F25.8
sVcaps
p2236
F25.83
ssg24
F34.191741
sVmillis
p2237
I327662
sg26
g27
(S'\x07\xdc\x06\x11\x152\x03\x08\x82\xec'
p2238
tp2239
Rp2240
sa(dp2241
Vmachine
p2242
Vshunt
p2243
sVdata
p2244
(dp2245
Vinverter
p2246
I00
sVnRelaysOn
p2247
I0
sVprev
p2248
F25.83
sVcaps
p2249
F25.83
ssg24
F34.393653
sVmillis
p2250
I327863
sg26
g27
(S'\x07\xdc\x06\x11\x152\x03\x0b\x97\xa4'
p2251
tp2252
Rp2253
sa(dp2254
Vmachine
p2255
Vshunt
p2256
sVdata
p2257
(dp2258
Vinverter
p2259
I00
sVnRelaysOn
p2260
I0
sVprev
p2261
F25.83
sVcaps
p2262
F25.83
ssg24
F34.595676
sVmillis
p2263
I328065
sg26
g27
(S'\x07\xdc\x06\x11\x152\x03\x0e\xac\xcb'
p2264
tp2265
Rp2266
sa(dp2267
Vmachine
p2268
Vshunt
p2269
sVdata
p2270
(dp2271
Vinverter
p2272
I00
sVnRelaysOn
p2273
I0
sVprev
p2274
F25.83
sVcaps
p2275
F25.83
ssg24
F34.797697
sVmillis
p2276
I328266
sg26
g27
(S'\x07\xdc\x06\x11\x152\x04\x02\x7f\xb0'
p2277
tp2278
Rp2279
sa(dp2280
Vmachine
p2281
Vshunt
p2282
sVdata
p2283
(dp2284
Vinverter
p2285
I00
sVnRelaysOn
p2286
I0
sVprev
p2287
F25.83
sVcaps
p2288
F25.82
ssg24
F34.998706
sVmillis
p2289
I328466
sg26
g27
(S'\x07\xdc\x06\x11\x152\x04\x05\x90\xe1'
p2290
tp2291
Rp2292
sa(dp2293
Vmachine
p2294
Vshunt
p2295
sVdata
p2296
(dp2297
Vinverter
p2298
I00
sVnRelaysOn
p2299
I0
sVprev
p2300
F25.83
sVcaps
p2301
F25.83
ssg24
F35.201383
sVmillis
p2302
I328668
sg26
g27
(S'\x07\xdc\x06\x11\x152\x04\x08\xa8\x96'
p2303
tp2304
Rp2305
sa(dp2306
Vmachine
p2307
Vshunt
p2308
sVdata
p2309
(dp2310
Vinverter
p2311
I00
sVnRelaysOn
p2312
I0
sVprev
p2313
F25.83
sVcaps
p2314
F25.83
ssg24
F35.403355
sVmillis
p2315
I328868
sg26
g27
(S'\x07\xdc\x06\x11\x152\x04\x0b\xbd\x8a'
p2316
tp2317
Rp2318
sa(dp2319
Vmachine
p2320
Vshunt
p2321
sVdata
p2322
(dp2323
Vinverter
p2324
I00
sVnRelaysOn
p2325
I0
sVprev
p2326
F25.83
sVcaps
p2327
F25.86
ssg24
F35.605146
sVmillis
p2328
I329070
sg26
g27
(S'\x07\xdc\x06\x11\x152\x04\x0e\xd1\xc9'
p2329
tp2330
Rp2331
sa(dp2332
Vmachine
p2333
Vshunt
p2334
sVdata
p2335
(dp2336
Vinverter
p2337
I00
sVnRelaysOn
p2338
I0
sVprev
p2339
F25.83
sVcaps
p2340
F25.86
ssg24
F35.796921999999995
sVmillis
p2341
I329271
sg26
g27
(S'\x07\xdc\x06\x11\x152\x05\x02|\xa9'
p2342
tp2343
Rp2344
sa(dp2345
Vmachine
p2346
Vshunt
p2347
sVdata
p2348
(dp2349
Vinverter
p2350
I00
sVnRelaysOn
p2351
I0
sVprev
p2352
F25.83
sVcaps
p2353
F25.87
ssg24
F35.999905
sVmillis
p2354
I329472
sg26
g27
(S'\x07\xdc\x06\x11\x152\x05\x05\x95\x90'
p2355
tp2356
Rp2357
sa(dp2358
Vmachine
p2359
Vshunt
p2360
sVdata
p2361
(dp2362
Vinverter
p2363
I00
sVnRelaysOn
p2364
I0
sVprev
p2365
F25.83
sVcaps
p2366
F25.87
ssg24
F36.201923
sVmillis
p2367
I329674
sg26
g27
(S'\x07\xdc\x06\x11\x152\x05\x08\xaa\xb2'
p2368
tp2369
Rp2370
sa(dp2371
Vmachine
p2372
Vshunt
p2373
sVdata
p2374
(dp2375
Vinverter
p2376
I00
sVnRelaysOn
p2377
I0
sVprev
p2378
F25.87
sVcaps
p2379
F25.87
ssg24
F36.403731
sVmillis
p2380
I329875
sg26
g27
(S'\x07\xdc\x06\x11\x152\x05\x0b\xbf\x02'
p2381
tp2382
Rp2383
sa(dp2384
Vmachine
p2385
Vshunt
p2386
sVdata
p2387
(dp2388
Vinverter
p2389
I00
sVnRelaysOn
p2390
I0
sVprev
p2391
F25.87
sVcaps
p2392
F25.89
ssg24
F36.605635
sVmillis
p2393
I330076
sg26
g27
(S'\x07\xdc\x06\x11\x152\x05\x0e\xd3\xb2'
p2394
tp2395
Rp2396
sa(dp2397
Vmachine
p2398
Vshunt
p2399
sVdata
p2400
(dp2401
Vinverter
p2402
I00
sVnRelaysOn
p2403
I0
sVprev
p2404
F25.87
sVcaps
p2405
F25.89
ssg24
F36.807649
sVmillis
p2406
I330277
sg26
g27
(S'\x07\xdc\x06\x11\x152\x06\x02\xa6\x90'
p2407
tp2408
Rp2409
sa(dp2410
Vmachine
p2411
Vshunt
p2412
sVdata
p2413
(dp2414
Vinverter
p2415
I00
sVnRelaysOn
p2416
I0
sVprev
p2417
F25.87
sVcaps
p2418
F25.89
ssg24
F37.009451999999996
sVmillis
p2419
I330477
sg26
g27
(S'\x07\xdc\x06\x11\x152\x06\x05\xba\xdb'
p2420
tp2421
Rp2422
sa(dp2423
Vmachine
p2424
Vshunt
p2425
sVdata
p2426
(dp2427
Vinverter
p2428
I00
sVnRelaysOn
p2429
I0
sVprev
p2430
F25.87
sVcaps
p2431
F25.9
ssg24
F37.211329
sVmillis
p2432
I330679
sg26
g27
(S'\x07\xdc\x06\x11\x152\x06\x08\xcfp'
p2433
tp2434
Rp2435
sa(dp2436
Vmachine
p2437
Vshunt
p2438
sVdata
p2439
(dp2440
Vinverter
p2441
I00
sVnRelaysOn
p2442
I0
sVprev
p2443
F25.9
sVcaps
p2444
F25.9
ssg24
F37.413252
sVmillis
p2445
I330881
sg26
g27
(S'\x07\xdc\x06\x11\x152\x06\x0b\xe43'
p2446
tp2447
Rp2448
sa(dp2449
Vmachine
p2450
Vshunt
p2451
sVdata
p2452
(dp2453
Vinverter
p2454
I00
sVnRelaysOn
p2455
I0
sVprev
p2456
F25.9
sVcaps
p2457
F25.9
ssg24
F37.614298
sVmillis
p2458
I331082
sg26
g27
(S'\x07\xdc\x06\x11\x152\x06\x0e\xf5\x89'
p2459
tp2460
Rp2461
sa(dp2462
Vmachine
p2463
Vshunt
p2464
sVdata
p2465
(dp2466
Vinverter
p2467
I00
sVnRelaysOn
p2468
I0
sVprev
p2469
F25.9
sVcaps
p2470
F25.91
ssg24
F37.816147
sVmillis
p2471
I331282
sg26
g27
(S'\x07\xdc\x06\x11\x152\x07\x02\xc7\xc2'
p2472
tp2473
Rp2474
sa(dp2475
Vmachine
p2476
Vshunt
p2477
sVdata
p2478
(dp2479
Vinverter
p2480
I00
sVnRelaysOn
p2481
I0
sVprev
p2482
F25.9
sVcaps
p2483
F25.9
ssg24
F38.018131
sVmillis
p2484
I331484
sg26
g27
(S'\x07\xdc\x06\x11\x152\x07\x05\xdc\xc2'
p2485
tp2486
Rp2487
sa(dp2488
Vmachine
p2489
Vshunt
p2490
sVdata
p2491
(dp2492
Vinverter
p2493
I00
sVnRelaysOn
p2494
I0
sVprev
p2495
F25.9
sVcaps
p2496
F25.91
ssg24
F38.220847
sVmillis
p2497
I331685
sg26
g27
(S'\x07\xdc\x06\x11\x152\x07\x08\xf4\x9e'
p2498
tp2499
Rp2500
sa(dp2501
Vmachine
p2502
Vshunt
p2503
sVdata
p2504
(dp2505
Vinverter
p2506
I00
sVnRelaysOn
p2507
I0
sVprev
p2508
F25.91
sVcaps
p2509
F25.9
ssg24
F38.412939
sVmillis
p2510
I331885
sg26
g27
(S'\x07\xdc\x06\x11\x152\x07\x0b\xe2\xfa'
p2511
tp2512
Rp2513
sa(dp2514
Vmachine
p2515
Vshunt
p2516
sVdata
p2517
(dp2518
Vinverter
p2519
I00
sVnRelaysOn
p2520
I0
sVprev
p2521
F25.91
sVcaps
p2522
F25.91
ssg24
F38.614917
sVmillis
p2523
I332087
sg26
g27
(S'\x07\xdc\x06\x11\x152\x07\x0e\xf7\xf4'
p2524
tp2525
Rp2526
sa(dp2527
Vmachine
p2528
Vshunt
p2529
sVdata
p2530
(dp2531
Vinverter
p2532
I00
sVnRelaysOn
p2533
I0
sVprev
p2534
F25.91
sVcaps
p2535
F25.92
ssg24
F38.816818
sVmillis
p2536
I332288
sg26
g27
(S'\x07\xdc\x06\x11\x152\x08\x02\xcaa'
p2537
tp2538
Rp2539
sa(dp2540
Vmachine
p2541
Vshunt
p2542
sVdata
p2543
(dp2544
Vinverter
p2545
I00
sVnRelaysOn
p2546
I0
sVprev
p2547
F25.91
sVcaps
p2548
F25.91
ssg24
F39.017921
sVmillis
p2549
I332490
sg26
g27
(S'\x07\xdc\x06\x11\x152\x08\x05\xdb\xf0'
p2550
tp2551
Rp2552
sa(dp2553
Vmachine
p2554
Vshunt
p2555
sVdata
p2556
(dp2557
Vinverter
p2558
I00
sVnRelaysOn
p2559
I0
sVprev
p2560
F25.91
sVcaps
p2561
F25.93
ssg24
F39.220622999999996
sVmillis
p2562
I332690
sg26
g27
(S'\x07\xdc\x06\x11\x152\x08\x08\xf3\xbe'
p2563
tp2564
Rp2565
sa(dp2566
Vmachine
p2567
Vshunt
p2568
sVdata
p2569
(dp2570
Vinverter
p2571
I00
sVnRelaysOn
p2572
I0
sVprev
p2573
F25.93
sVcaps
p2574
F25.93
ssg24
F39.422551
sVmillis
p2575
I332892
sg26
g27
(S'\x07\xdc\x06\x11\x152\x08\x0c\x08\x86'
p2576
tp2577
Rp2578
sa(dp2579
Vmachine
p2580
Vshunt
p2581
sVdata
p2582
(dp2583
Vinverter
p2584
I00
sVnRelaysOn
p2585
I0
sVprev
p2586
F25.93
sVcaps
p2587
F25.94
ssg24
F39.624176
sVmillis
p2588
I333092
sg26
g27
(S'\x07\xdc\x06\x11\x152\x08\x0f\x1c\x1f'
p2589
tp2590
Rp2591
sa(dp2592
Vmachine
p2593
Vshunt
p2594
sVdata
p2595
(dp2596
Vinverter
p2597
I00
sVnRelaysOn
p2598
I0
sVprev
p2599
F25.93
sVcaps
p2600
F25.95
ssg24
F39.826374
sVmillis
p2601
I333293
sg26
g27
(S'\x07\xdc\x06\x11\x152\t\x02\xef\xb5'
p2602
tp2603
Rp2604
sa(dp2605
Vmachine
p2606
Vshunt
p2607
sVdata
p2608
(dp2609
Vinverter
p2610
I00
sVnRelaysOn
p2611
I0
sVprev
p2612
F25.93
sVcaps
p2613
F25.96
ssg24
F40.028247
sVmillis
p2614
I333495
sg26
g27
(S'\x07\xdc\x06\x11\x152\t\x06\x04F'
p2615
tp2616
Rp2617
sa(dp2618
Vmachine
p2619
Vshunt
p2620
sVdata
p2621
(dp2622
Vinverter
p2623
I00
sVnRelaysOn
p2624
I0
sVprev
p2625
F25.93
sVcaps
p2626
F25.96
ssg24
F40.22915
sVmillis
p2627
I333696
sg26
g27
(S'\x07\xdc\x06\x11\x152\t\t\x15\r'
p2628
tp2629
Rp2630
sa(dp2631
Vmachine
p2632
Vshunt
p2633
sVdata
p2634
(dp2635
Vinverter
p2636
I00
sVnRelaysOn
p2637
I0
sVprev
p2638
F25.96
sVcaps
p2639
F25.96
ssg24
F40.431152
sVmillis
p2640
I333898
sg26
g27
(S'\x07\xdc\x06\x11\x152\t\x0c*\x1f'
p2641
tp2642
Rp2643
sa(dp2644
Vmachine
p2645
Vshunt
p2646
sVdata
p2647
(dp2648
Vinverter
p2649
I00
sVnRelaysOn
p2650
I0
sVprev
p2651
F25.96
sVcaps
p2652
F25.97
ssg24
F40.632843
sVmillis
p2653
I334098
sg26
g27
(S'\x07\xdc\x06\x11\x152\t\x0f=\xfa'
p2654
tp2655
Rp2656
sa(dp2657
Vmachine
p2658
Vshunt
p2659
sVdata
p2660
(dp2661
Vinverter
p2662
I00
sVnRelaysOn
p2663
I0
sVprev
p2664
F25.96
sVcaps
p2665
F25.99
ssg24
F40.834887
sVmillis
p2666
I334300
sg26
g27
(S'\x07\xdc\x06\x11\x152\n\x03\x10\xf6'
p2667
tp2668
Rp2669
sa(dp2670
Vmachine
p2671
Vshunt
p2672
sVdata
p2673
(dp2674
Vinverter
p2675
I00
sVnRelaysOn
p2676
I0
sVprev
p2677
F25.96
sVcaps
p2678
F25.99
ssg24
F41.026674
sVmillis
p2679
I334500
sg26
g27
(S'\x07\xdc\x06\x11\x152\n\x05\xfe!'
p2680
tp2681
Rp2682
sa(dp2683
Vmachine
p2684
Vshunt
p2685
sVdata
p2686
(dp2687
Vinverter
p2688
I00
sVnRelaysOn
p2689
I0
sVprev
p2690
F25.96
sVcaps
p2691
F25.99
ssg24
F41.229337
sVmillis
p2692
I334701
sg26
g27
(S'\x07\xdc\x06\x11\x152\n\t\x15\xc8'
p2693
tp2694
Rp2695
sa(dp2696
Vmachine
p2697
Vshunt
p2698
sVdata
p2699
(dp2700
Vinverter
p2701
I00
sVnRelaysOn
p2702
I0
sVprev
p2703
F25.99
sVcaps
p2704
F25.99
ssg24
F41.431602999999996
sVmillis
p2705
I334903
sg26
g27
(S'\x07\xdc\x06\x11\x152\n\x0c+\xe2'
p2706
tp2707
Rp2708
sa(dp2709
Vmachine
p2710
Vshunt
p2711
sVdata
p2712
(dp2713
Vinverter
p2714
I00
sVnRelaysOn
p2715
I0
sVprev
p2716
F25.99
sVcaps
p2717
F26.0
ssg24
F41.633414
sVmillis
p2718
I335104
sg26
g27
(S'\x07\xdc\x06\x11\x152\n\x0f@5'
p2719
tp2720
Rp2721
sa(dp2722
Vmachine
p2723
Vshunt
p2724
sVdata
p2725
(dp2726
Vinverter
p2727
I00
sVnRelaysOn
p2728
I0
sVprev
p2729
F25.99
sVcaps
p2730
F26.02
ssg24
F41.835553
sVmillis
p2731
I335306
sg26
g27
(S'\x07\xdc\x06\x11\x152\x0b\x03\x13\x90'
p2732
tp2733
Rp2734
sa(dp2735
Vmachine
p2736
Vshunt
p2737
sVdata
p2738
(dp2739
Vinverter
p2740
I00
sVnRelaysOn
p2741
I0
sVprev
p2742
F25.99
sVcaps
p2743
F26.01
ssg24
F42.037366
sVmillis
p2744
I335507
sg26
g27
(S"\x07\xdc\x06\x11\x152\x0b\x06'\xe5"
p2745
tp2746
Rp2747
sa(dp2748
Vmachine
p2749
Vshunt
p2750
sVdata
p2751
(dp2752
Vinverter
p2753
I00
sVnRelaysOn
p2754
I0
sVprev
p2755
F25.99
sVcaps
p2756
F26.02
ssg24
F42.239264
sVmillis
p2757
I335708
sg26
g27
(S'\x07\xdc\x06\x11\x152\x0b\t<\x8f'
p2758
tp2759
Rp2760
sa(dp2761
Vmachine
p2762
Vshunt
p2763
sVdata
p2764
(dp2765
Vinverter
p2766
I00
sVnRelaysOn
p2767
I0
sVprev
p2768
F26.02
sVcaps
p2769
F26.03
ssg24
F42.441058999999996
sVmillis
p2770
I335908
sg26
g27
(S'\x07\xdc\x06\x11\x152\x0b\x0cP\xd2'
p2771
tp2772
Rp2773
sa(dp2774
Vmachine
p2775
Vshunt
p2776
sVdata
p2777
(dp2778
Vinverter
p2779
I00
sVnRelaysOn
p2780
I0
sVprev
p2781
F26.02
sVcaps
p2782
F26.03
ssg24
F42.642050999999995
sVmillis
p2783
I336110
sg26
g27
(S'\x07\xdc\x06\x11\x152\x0c\x00\x1f\xb2'
p2784
tp2785
Rp2786
sa(dp2787
Vmachine
p2788
Vshunt
p2789
sVdata
p2790
(dp2791
Vinverter
p2792
I00
sVnRelaysOn
p2793
I0
sVprev
p2794
F26.02
sVcaps
p2795
F26.03
ssg24
F42.844922
sVmillis
p2796
I336311
sg26
g27
(S'\x07\xdc\x06\x11\x152\x0c\x038)'
p2797
tp2798
Rp2799
sa(dp2800
Vmachine
p2801
Vshunt
p2802
sVdata
p2803
(dp2804
Vinverter
p2805
I00
sVnRelaysOn
p2806
I0
sVprev
p2807
F26.02
sVcaps
p2808
F26.04
ssg24
F43.046002
sVmillis
p2809
I336512
sg26
g27
(S'\x07\xdc\x06\x11\x152\x0c\x06I\xa1'
p2810
tp2811
Rp2812
sa(dp2813
Vmachine
p2814
Vshunt
p2815
sVdata
p2816
(dp2817
Vinverter
p2818
I00
sVnRelaysOn
p2819
I0
sVprev
p2820
F26.02
sVcaps
p2821
F26.04
ssg24
F43.248835
sVmillis
p2822
I336714
sg26
g27
(S'\x07\xdc\x06\x11\x152\x0c\ta\xf2'
p2823
tp2824
Rp2825
sa(dp2826
Vmachine
p2827
Vshunt
p2828
sVdata
p2829
(dp2830
Vinverter
p2831
I00
sVnRelaysOn
p2832
I0
sVprev
p2833
F26.04
sVcaps
p2834
F26.05
ssg24
F43.44065
sVmillis
p2835
I336914
sg26
g27
(S'\x07\xdc\x06\x11\x152\x0c\x0cO9'
p2836
tp2837
Rp2838
sa(dp2839
Vmachine
p2840
Vshunt
p2841
sVdata
p2842
(dp2843
Vinverter
p2844
I00
sVnRelaysOn
p2845
I0
sVprev
p2846
F26.04
sVcaps
p2847
F26.04
ssg24
F43.643640999999995
sVmillis
p2848
I337116
sg26
g27
(S'\x07\xdc\x06\x11\x152\r\x00%\xe8'
p2849
tp2850
Rp2851
sa(dp2852
Vmachine
p2853
Vshunt
p2854
sVdata
p2855
(dp2856
Vinverter
p2857
I00
sVnRelaysOn
p2858
I0
sVprev
p2859
F26.04
sVcaps
p2860
F26.04
ssg24
F43.845566
sVmillis
p2861
I337316
sg26
g27
(S'\x07\xdc\x06\x11\x152\r\x03:\xad'
p2862
tp2863
Rp2864
sa(dp2865
Vmachine
p2866
Vshunt
p2867
sVdata
p2868
(dp2869
Vinverter
p2870
I00
sVnRelaysOn
p2871
I0
sVprev
p2872
F26.04
sVcaps
p2873
F26.05
ssg24
F44.047433
sVmillis
p2874
I337517
sg26
g27
(S'\x07\xdc\x06\x11\x152\r\x06O8'
p2875
tp2876
Rp2877
sa(dp2878
Vmachine
p2879
Vshunt
p2880
sVdata
p2881
(dp2882
Vinverter
p2883
I00
sVnRelaysOn
p2884
I0
sVprev
p2885
F26.04
sVcaps
p2886
F26.06
ssg24
F44.249322
sVmillis
p2887
I337719
sg26
g27
(S'\x07\xdc\x06\x11\x152\r\tc\xd9'
p2888
tp2889
Rp2890
sa(dp2891
Vmachine
p2892
Vshunt
p2893
sVdata
p2894
(dp2895
Vinverter
p2896
I00
sVnRelaysOn
p2897
I0
sVprev
p2898
F26.06
sVcaps
p2899
F26.07
ssg24
F44.451215
sVmillis
p2900
I337920
sg26
g27
(S'\x07\xdc\x06\x11\x152\r\x0cx~'
p2901
tp2902
Rp2903
sa(dp2904
Vmachine
p2905
Vshunt
p2906
sVdata
p2907
(dp2908
Vinverter
p2909
I00
sVnRelaysOn
p2910
I0
sVprev
p2911
F26.06
sVcaps
p2912
F26.07
ssg24
F44.653258
sVmillis
p2913
I338122
sg26
g27
(S'\x07\xdc\x06\x11\x152\x0e\x00Ky'
p2914
tp2915
Rp2916
sa(dp2917
Vmachine
p2918
Vshunt
p2919
sVdata
p2920
(dp2921
Vinverter
p2922
I00
sVnRelaysOn
p2923
I0
sVprev
p2924
F26.06
sVcaps
p2925
F26.08
ssg24
F44.855078
sVmillis
p2926
I338322
sg26
g27
(S'\x07\xdc\x06\x11\x152\x0e\x03_\xd5'
p2927
tp2928
Rp2929
sa(dp2930
Vmachine
p2931
Vshunt
p2932
sVdata
p2933
(dp2934
Vinverter
p2935
I00
sVnRelaysOn
p2936
I0
sVprev
p2937
F26.06
sVcaps
p2938
F26.1
ssg24
F45.057004
sVmillis
p2939
I338524
sg26
g27
(S'\x07\xdc\x06\x11\x152\x0e\x06t\x9b'
p2940
tp2941
Rp2942
sa(dp2943
Vmachine
p2944
Vshunt
p2945
sVdata
p2946
(dp2947
Vinverter
p2948
I00
sVnRelaysOn
p2949
I0
sVprev
p2950
F26.06
sVcaps
p2951
F26.09
ssg24
F45.258883
sVmillis
p2952
I338724
sg26
g27
(S'\x07\xdc\x06\x11\x152\x0e\t\x892'
p2953
tp2954
Rp2955
sa(dp2956
Vmachine
p2957
Vshunt
p2958
sVdata
p2959
(dp2960
Vinverter
p2961
I00
sVnRelaysOn
p2962
I0
sVprev
p2963
F26.09
sVcaps
p2964
F26.1
ssg24
F45.460702999999995
sVmillis
p2965
I338925
sg26
g27
(S'\x07\xdc\x06\x11\x152\x0e\x0c\x9d\x8e'
p2966
tp2967
Rp2968
sa(dp2969
Vmachine
p2970
Vshunt
p2971
sVdata
p2972
(dp2973
Vinverter
p2974
I00
sVnRelaysOn
p2975
I0
sVprev
p2976
F26.09
sVcaps
p2977
F26.08
ssg24
F45.662625
sVmillis
p2978
I339127
sg26
g27
(S'\x07\xdc\x06\x11\x152\x0f\x00p\x10'
p2979
tp2980
Rp2981
sa(dp2982
Vmachine
p2983
Vshunt
p2984
sVdata
p2985
(dp2986
Vinverter
p2987
I00
sVnRelaysOn
p2988
I0
sVprev
p2989
F26.09
sVcaps
p2990
F26.08
ssg24
F45.854639999999996
sVmillis
p2991
I339328
sg26
g27
(S'\x07\xdc\x06\x11\x152\x0f\x03^\x1f'
p2992
tp2993
Rp2994
sa(dp2995
Vmachine
p2996
Vshunt
p2997
sVdata
p2998
(dp2999
Vinverter
p3000
I00
sVnRelaysOn
p3001
I0
sVprev
p3002
F26.09
sVcaps
p3003
F26.09
ssg24
F46.057629999999996
sVmillis
p3004
I339530
sg26
g27
(S'\x07\xdc\x06\x11\x152\x0f\x06w\r'
p3005
tp3006
Rp3007
sa(dp3008
Vmachine
p3009
Vshunt
p3010
sVdata
p3011
(dp3012
Vinverter
p3013
I00
sVnRelaysOn
p3014
I0
sVprev
p3015
F26.09
sVcaps
p3016
F26.1
ssg24
F46.259418
sVmillis
p3017
I339730
sg26
g27
(S'\x07\xdc\x06\x11\x152\x0f\t\x8bI'
p3018
tp3019
Rp3020
sa(dp3021
Vmachine
p3022
Vshunt
p3023
sVdata
p3024
(dp3025
Vinverter
p3026
I00
sVnRelaysOn
p3027
I0
sVprev
p3028
F26.1
sVcaps
p3029
F26.1
ssg24
F46.461909999999996
sVmillis
p3030
I339932
sg26
g27
(S'\x07\xdc\x06\x11\x152\x0f\x0c\xa2E'
p3031
tp3032
Rp3033
sa(dp3034
Vmachine
p3035
Vshunt
p3036
sVdata
p3037
(dp3038
Vinverter
p3039
I00
sVnRelaysOn
p3040
I0
sVprev
p3041
F26.1
sVcaps
p3042
F26.1
ssg24
F46.663281
sVmillis
p3043
I340132
sg26
g27
(S'\x07\xdc\x06\x11\x152\x10\x00r\xa0'
p3044
tp3045
Rp3046
sa(dp3047
Vmachine
p3048
Vshunt
p3049
sVdata
p3050
(dp3051
Vinverter
p3052
I00
sVnRelaysOn
p3053
I0
sVprev
p3054
F26.1
sVcaps
p3055
F26.1
ssg24
F46.865144
sVmillis
p3056
I340333
sg26
g27
(S"\x07\xdc\x06\x11\x152\x10\x03\x87'"
p3057
tp3058
Rp3059
sa(dp3060
Vmachine
p3061
Vshunt
p3062
sVdata
p3063
(dp3064
Vinverter
p3065
I00
sVnRelaysOn
p3066
I0
sVprev
p3067
F26.1
sVcaps
p3068
F26.11
ssg24
F47.067036
sVmillis
p3069
I340535
sg26
g27
(S'\x07\xdc\x06\x11\x152\x10\x06\x9b\xcb'
p3070
tp3071
Rp3072
sa(dp3073
Vmachine
p3074
Vshunt
p3075
sVdata
p3076
(dp3077
Vinverter
p3078
I00
sVnRelaysOn
p3079
I0
sVprev
p3080
F26.1
sVcaps
p3081
F26.11
ssg24
F47.268948
sVmillis
p3082
I340736
sg26
g27
(S'\x07\xdc\x06\x11\x152\x10\t\xb0\x83'
p3083
tp3084
Rp3085
sa(dp3086
Vmachine
p3087
Vshunt
p3088
sVdata
p3089
(dp3090
Vinverter
p3091
I00
sVnRelaysOn
p3092
I0
sVprev
p3093
F26.11
sVcaps
p3094
F26.12
ssg24
F47.470942
sVmillis
p3095
I340938
sg26
g27
(S'\x07\xdc\x06\x11\x152\x10\x0c\xc5\x8d'
p3096
tp3097
Rp3098
sa(dp3099
Vmachine
p3100
Vshunt
p3101
sVdata
p3102
(dp3103
Vinverter
p3104
I00
sVnRelaysOn
p3105
I0
sVprev
p3106
F26.11
sVcaps
p3107
F26.13
ssg24
F47.671763
sVmillis
p3108
I341138
sg26
g27
(S'\x07\xdc\x06\x11\x152\x11\x00\x93\xc2'
p3109
tp3110
Rp3111
sa(dp3112
Vmachine
p3113
Vshunt
p3114
sVdata
p3115
(dp3116
Vinverter
p3117
I00
sVnRelaysOn
p3118
I0
sVprev
p3119
F26.11
sVcaps
p3120
F26.12
ssg24
F47.874609
sVmillis
p3121
I341340
sg26
g27
(S'\x07\xdc\x06\x11\x152\x11\x03\xac '
p3122
tp3123
Rp3124
sa(dp3125
Vmachine
p3126
Vshunt
p3127
sVdata
p3128
(dp3129
Vinverter
p3130
I00
sVnRelaysOn
p3131
I0
sVprev
p3132
F26.11
sVcaps
p3133
F26.14
ssg24
F48.075614
sVmillis
p3134
I341540
sg26
g27
(S'\x07\xdc\x06\x11\x152\x11\x06\xbdM'
p3135
tp3136
Rp3137
sa(dp3138
Vmachine
p3139
Vshunt
p3140
sVdata
p3141
(dp3142
Vinverter
p3143
I00
sVnRelaysOn
p3144
I0
sVprev
p3145
F26.11
sVcaps
p3146
F26.14
ssg24
F48.267278999999995
sVmillis
p3147
I341741
sg26
g27
(S'\x07\xdc\x06\x11\x152\x11\t\xa9\xfe'
p3148
tp3149
Rp3150
sa(dp3151
Vmachine
p3152
Vshunt
p3153
sVdata
p3154
(dp3155
Vinverter
p3156
I00
sVnRelaysOn
p3157
I0
sVprev
p3158
F26.14
sVcaps
p3159
F26.15
ssg24
F48.470403999999995
sVmillis
p3160
I341943
sg26
g27
(S'\x07\xdc\x06\x11\x152\x11\x0c\xc3s'
p3161
tp3162
Rp3163
sa(dp3164
Vmachine
p3165
Vshunt
p3166
sVdata
p3167
(dp3168
Vinverter
p3169
I00
sVnRelaysOn
p3170
I0
sVprev
p3171
F26.14
sVcaps
p3172
F26.15
ssg24
F48.672233
sVmillis
p3173
I342144
sg26
g27
(S'\x07\xdc\x06\x11\x152\x12\x00\x95\x98'
p3174
tp3175
Rp3176
sa(dp3177
Vmachine
p3178
Vshunt
p3179
sVdata
p3180
(dp3181
Vinverter
p3182
I00
sVnRelaysOn
p3183
I0
sVprev
p3184
F26.14
sVcaps
p3185
F26.16
ssg24
F48.874272999999995
sVmillis
p3186
I342346
sg26
g27
(S'\x07\xdc\x06\x11\x152\x12\x03\xaa\xd0'
p3187
tp3188
Rp3189
sa(dp3190
Vmachine
p3191
Vshunt
p3192
sVdata
p3193
(dp3194
Vinverter
p3195
I00
sVnRelaysOn
p3196
I0
sVprev
p3197
F26.14
sVcaps
p3198
F26.16
ssg24
F49.076084
sVmillis
p3199
I342546
sg26
g27
(S'\x07\xdc\x06\x11\x152\x12\x06\xbf#'
p3200
tp3201
Rp3202
sa(dp3203
Vmachine
p3204
Vshunt
p3205
sVdata
p3206
(dp3207
Vinverter
p3208
I00
sVnRelaysOn
p3209
I0
sVprev
p3210
F26.14
sVcaps
p3211
F26.16
ssg24
F49.278011
sVmillis
p3212
I342748
sg26
g27
(S'\x07\xdc\x06\x11\x152\x12\t\xd3\xea'
p3213
tp3214
Rp3215
sa(dp3216
Vmachine
p3217
Vshunt
p3218
sVdata
p3219
(dp3220
Vinverter
p3221
I00
sVnRelaysOn
p3222
I0
sVprev
p3223
F26.16
sVcaps
p3224
F26.17
ssg24
F49.479983
sVmillis
p3225
I342948
sg26
g27
(S'\x07\xdc\x06\x11\x152\x12\x0c\xe8\xde'
p3226
tp3227
Rp3228
sa(dp3229
Vmachine
p3230
Vshunt
p3231
sVdata
p3232
(dp3233
Vinverter
p3234
I00
sVnRelaysOn
p3235
I0
sVprev
p3236
F26.16
sVcaps
p3237
F26.18
ssg24
F49.681798
sVmillis
p3238
I343149
sg26
g27
(S'\x07\xdc\x06\x11\x152\x13\x00\xba\xf5'
p3239
tp3240
Rp3241
sa(dp3242
Vmachine
p3243
Vshunt
p3244
sVdata
p3245
(dp3246
Vinverter
p3247
I00
sVnRelaysOn
p3248
I0
sVprev
p3249
F26.16
sVcaps
p3250
F26.17
ssg24
F49.883807
sVmillis
p3251
I343351
sg26
g27
(S'\x07\xdc\x06\x11\x152\x13\x03\xd0\x0e'
p3252
tp3253
Rp3254
sa(dp3255
Vmachine
p3256
Vshunt
p3257
sVdata
p3258
(dp3259
Vinverter
p3260
I00
sVnRelaysOn
p3261
I0
sVprev
p3262
F26.16
sVcaps
p3263
F26.18
ssg24
F50.085679
sVmillis
p3264
I343553
sg26
g27
(S'\x07\xdc\x06\x11\x152\x13\x06\xe4\x9e'
p3265
tp3266
Rp3267
sa(dp3268
Vmachine
p3269
Vshunt
p3270
sVdata
p3271
(dp3272
Vinverter
p3273
I00
sVnRelaysOn
p3274
I0
sVprev
p3275
F26.16
sVcaps
p3276
F26.2
ssg24
F50.287665
sVmillis
p3277
I343754
sg26
g27
(S'\x07\xdc\x06\x11\x152\x13\t\xf9\xa0'
p3278
tp3279
Rp3280
sa(dp3281
Vmachine
p3282
Vshunt
p3283
sVdata
p3284
(dp3285
Vinverter
p3286
I00
sVnRelaysOn
p3287
I0
sVprev
p3288
F26.2
sVcaps
p3289
F26.21
ssg24
F50.488642
sVmillis
p3290
I343954
sg26
g27
(S'\x07\xdc\x06\x11\x152\x13\r\n\xb1'
p3291
tp3292
Rp3293
sa(dp3294
Vmachine
p3295
Vshunt
p3296
sVdata
p3297
(dp3298
Vinverter
p3299
I00
sVnRelaysOn
p3300
I0
sVprev
p3301
F26.2
sVcaps
p3302
F26.23
ssg24
F50.691407999999996
sVmillis
p3303
I344156
sg26
g27
(S'\x07\xdc\x06\x11\x152\x14\x00\xe0\x7f'
p3304
tp3305
Rp3306
sa(dp3307
Vmachine
p3308
Vshunt
p3309
sVdata
p3310
(dp3311
Vinverter
p3312
I00
sVnRelaysOn
p3313
I0
sVprev
p3314
F26.2
sVcaps
p3315
F26.23
ssg24
F50.883302
sVmillis
p3316
I344357
sg26
g27
(S'\x07\xdc\x06\x11\x152\x14\x03\xce\x15'
p3317
tp3318
Rp3319
sa(dp3320
Vmachine
p3321
Vshunt
p3322
sVdata
p3323
(dp3324
Vinverter
p3325
I00
sVnRelaysOn
p3326
I0
sVprev
p3327
F26.2
sVcaps
p3328
F26.24
ssg24
F51.085426
sVmillis
p3329
I344557
sg26
g27
(S'\x07\xdc\x06\x11\x152\x14\x06\xe3\xa1'
p3330
tp3331
Rp3332
sa(dp3333
Vmachine
p3334
Vshunt
p3335
sVdata
p3336
(dp3337
Vinverter
p3338
I00
sVnRelaysOn
p3339
I0
sVprev
p3340
F26.2
sVcaps
p3341
F26.24
ssg24
F51.28809
sVmillis
p3342
I344759
sg26
g27
(S'\x07\xdc\x06\x11\x152\x14\t\xfbI'
p3343
tp3344
Rp3345
sa(dp3346
Vmachine
p3347
Vshunt
p3348
sVdata
p3349
(dp3350
Vinverter
p3351
I00
sVnRelaysOn
p3352
I0
sVprev
p3353
F26.24
sVcaps
p3354
F26.24
ssg24
F51.490048
sVmillis
p3355
I344960
sg26
g27
(S'\x07\xdc\x06\x11\x152\x14\r\x10/'
p3356
tp3357
Rp3358
sa(dp3359
Vmachine
p3360
Vshunt
p3361
sVdata
p3362
(dp3363
Vinverter
p3364
I00
sVnRelaysOn
p3365
I0
sVprev
p3366
F26.24
sVcaps
p3367
F26.25
ssg24
F51.69164
sVmillis
p3368
I345162
sg26
g27
(S'\x07\xdc\x06\x11\x152\x15\x00\xe1g'
p3369
tp3370
Rp3371
sa(dp3372
Vmachine
p3373
Vshunt
p3374
sVdata
p3375
(dp3376
Vinverter
p3377
I00
sVnRelaysOn
p3378
I0
sVprev
p3379
F26.24
sVcaps
p3380
F26.26
ssg24
F51.893913
sVmillis
p3381
I345362
sg26
g27
(S'\x07\xdc\x06\x11\x152\x15\x03\xf7\x88'
p3382
tp3383
Rp3384
sa(dp3385
Vmachine
p3386
Vshunt
p3387
sVdata
p3388
(dp3389
Vinverter
p3390
I00
sVnRelaysOn
p3391
I0
sVprev
p3392
F26.24
sVcaps
p3393
F26.27
ssg24
F52.095717
sVmillis
p3394
I345564
sg26
g27
(S'\x07\xdc\x06\x11\x152\x15\x07\x0b\xd4'
p3395
tp3396
Rp3397
sa(dp3398
Vmachine
p3399
Vshunt
p3400
sVdata
p3401
(dp3402
Vinverter
p3403
I00
sVnRelaysOn
p3404
I0
sVprev
p3405
F26.24
sVcaps
p3406
F26.27
ssg24
F52.297745
sVmillis
p3407
I345764
sg26
g27
(S'\x07\xdc\x06\x11\x152\x15\n!\x00'
p3408
tp3409
Rp3410
sa(dp3411
Vmachine
p3412
Vshunt
p3413
sVdata
p3414
(dp3415
Vinverter
p3416
I00
sVnRelaysOn
p3417
I0
sVprev
p3418
F26.27
sVcaps
p3419
F26.27
ssg24
F52.499541
sVmillis
p3420
I345965
sg26
g27
(S'\x07\xdc\x06\x11\x152\x15\r5D'
p3421
tp3422
Rp3423
sa(dp3424
Vmachine
p3425
Vshunt
p3426
sVdata
p3427
(dp3428
Vinverter
p3429
I00
sVnRelaysOn
p3430
I0
sVprev
p3431
F26.27
sVcaps
p3432
F26.27
ssg24
F52.701326
sVmillis
p3433
I346167
sg26
g27
(S'\x07\xdc\x06\x11\x152\x16\x01\x07='
p3434
tp3435
Rp3436
sa(dp3437
Vmachine
p3438
Vshunt
p3439
sVdata
p3440
(dp3441
Vinverter
p3442
I00
sVnRelaysOn
p3443
I0
sVprev
p3444
F26.27
sVcaps
p3445
F26.29
ssg24
F52.903383999999996
sVmillis
p3446
I346368
sg26
g27
(S'\x07\xdc\x06\x11\x152\x16\x04\x1c\x87'
p3447
tp3448
Rp3449
sa(dp3450
Vmachine
p3451
Vshunt
p3452
sVdata
p3453
(dp3454
Vinverter
p3455
I00
sVnRelaysOn
p3456
I0
sVprev
p3457
F26.27
sVcaps
p3458
F26.28
ssg24
F53.105404
sVmillis
p3459
I346570
sg26
g27
(S'\x07\xdc\x06\x11\x152\x16\x071\xab'
p3460
tp3461
Rp3462
sa(dp3463
Vmachine
p3464
Vshunt
p3465
sVdata
p3466
(dp3467
Vinverter
p3468
I00
sVnRelaysOn
p3469
I0
sVprev
p3470
F26.27
sVcaps
p3471
F26.29
ssg24
F53.296947
sVmillis
p3472
I346770
sg26
g27
(S'\x07\xdc\x06\x11\x152\x16\n\x1d\xe2'
p3473
tp3474
Rp3475
sa(dp3476
Vmachine
p3477
Vshunt
p3478
sVdata
p3479
(dp3480
Vinverter
p3481
I00
sVnRelaysOn
p3482
I0
sVprev
p3483
F26.29
sVcaps
p3484
F26.31
ssg24
F53.49929399999999
sVmillis
p3485
I346972
sg26
g27
(S'\x07\xdc\x06\x11\x152\x16\r4M'
p3486
tp3487
Rp3488
sa(dp3489
Vmachine
p3490
Vshunt
p3491
sVdata
p3492
(dp3493
Vinverter
p3494
I00
sVnRelaysOn
p3495
I0
sVprev
p3496
F26.29
sVcaps
p3497
F26.3
ssg24
F53.70116399999999
sVmillis
p3498
I347172
sg26
g27
(S'\x07\xdc\x06\x11\x152\x17\x01\x06\x9b'
p3499
tp3500
Rp3501
sa(dp3502
Vmachine
p3503
Vshunt
p3504
sVdata
p3505
(dp3506
Vinverter
p3507
I00
sVnRelaysOn
p3508
I0
sVprev
p3509
F26.29
sVcaps
p3510
F26.32
ssg24
F53.903069
sVmillis
p3511
I347373
sg26
g27
(S'\x07\xdc\x06\x11\x152\x17\x04\x1bL'
p3512
tp3513
Rp3514
sa(dp3515
Vmachine
p3516
Vshunt
p3517
sVdata
p3518
(dp3519
Vinverter
p3520
I00
sVnRelaysOn
p3521
I0
sVprev
p3522
F26.29
sVcaps
p3523
F26.33
ssg24
F54.104983000000004
sVmillis
p3524
I347575
sg26
g27
(S'\x07\xdc\x06\x11\x152\x17\x070\x06'
p3525
tp3526
Rp3527
sa(dp3528
Vmachine
p3529
Vshunt
p3530
sVdata
p3531
(dp3532
Vinverter
p3533
I00
sVnRelaysOn
p3534
I0
sVprev
p3535
F26.29
sVcaps
p3536
F26.33
ssg24
F54.306889999999996
sVmillis
p3537
I347776
sg26
g27
(S'\x07\xdc\x06\x11\x152\x17\nD\xb9'
p3538
tp3539
Rp3540
sa(dp3541
Vmachine
p3542
Vshunt
p3543
sVdata
p3544
(dp3545
Vinverter
p3546
I00
sVnRelaysOn
p3547
I0
sVprev
p3548
F26.33
sVcaps
p3549
F26.35
ssg24
F54.508888
sVmillis
p3550
I347978
sg26
g27
(S'\x07\xdc\x06\x11\x152\x17\rY\xc7'
p3551
tp3552
Rp3553
sa(dp3554
Vmachine
p3555
Vshunt
p3556
sVdata
p3557
(dp3558
Vinverter
p3559
I00
sVnRelaysOn
p3560
I0
sVprev
p3561
F26.33
sVcaps
p3562
F26.34
ssg24
F54.710739000000004
sVmillis
p3563
I348178
sg26
g27
(S'\x07\xdc\x06\x11\x152\x18\x01,\x02'
p3564
tp3565
Rp3566
sa(dp3567
Vmachine
p3568
Vshunt
p3569
sVdata
p3570
(dp3571
Vinverter
p3572
I00
sVnRelaysOn
p3573
I0
sVprev
p3574
F26.33
sVcaps
p3575
F26.34
ssg24
F54.912640999999994
sVmillis
p3576
I348380
sg26
g27
(S'\x07\xdc\x06\x11\x152\x18\x04@\xb0'
p3577
tp3578
Rp3579
sa(dp3580
Vmachine
p3581
Vshunt
p3582
sVdata
p3583
(dp3584
Vinverter
p3585
I00
sVnRelaysOn
p3586
I0
sVprev
p3587
F26.33
sVcaps
p3588
F26.35
ssg24
F55.114434
sVmillis
p3589
I348580
sg26
g27
(S'\x07\xdc\x06\x11\x152\x18\x07T\xf1'
p3590
tp3591
Rp3592
sa(dp3593
Vmachine
p3594
Vshunt
p3595
sVdata
p3596
(dp3597
Vinverter
p3598
I00
sVnRelaysOn
p3599
I0
sVprev
p3600
F26.33
sVcaps
p3601
F26.35
ssg24
F55.315653
sVmillis
p3602
I348782
sg26
g27
(S'\x07\xdc\x06\x11\x152\x18\nf\xf4'
p3603
tp3604
Rp3605
sa(dp3606
Vmachine
p3607
Vshunt
p3608
sVdata
p3609
(dp3610
Vinverter
p3611
I00
sVnRelaysOn
p3612
I0
sVprev
p3613
F26.35
sVcaps
p3614
F26.36
ssg24
F55.518193
sVmillis
p3615
I348983
sg26
g27
(S'\x07\xdc\x06\x11\x152\x18\r~ '
p3616
tp3617
Rp3618
sa(dp3619
Vmachine
p3620
Vshunt
p3621
sVdata
p3622
(dp3623
Vinverter
p3624
I00
sVnRelaysOn
p3625
I0
sVprev
p3626
F26.35
sVcaps
p3627
F26.35
ssg24
F55.719179
sVmillis
p3628
I349184
sg26
g27
(S'\x07\xdc\x06\x11\x152\x19\x01L\xfa'
p3629
tp3630
Rp3631
sa(dp3632
Vmachine
p3633
Vshunt
p3634
sVdata
p3635
(dp3636
Vinverter
p3637
I00
sVnRelaysOn
p3638
I0
sVprev
p3639
F26.35
sVcaps
p3640
F26.35
ssg24
F55.921227
sVmillis
p3641
I349386
sg26
g27
(S'\x07\xdc\x06\x11\x152\x19\x04b:'
p3642
tp3643
Rp3644
sa(dp3645
Vmachine
p3646
Vshunt
p3647
sVdata
p3648
(dp3649
Vinverter
p3650
I00
sVnRelaysOn
p3651
I0
sVprev
p3652
F26.35
sVcaps
p3653
F26.37
ssg24
F56.113123
sVmillis
p3654
I349586
sg26
g27
(S'\x07\xdc\x06\x11\x152\x19\x07O\xd2'
p3655
tp3656
Rp3657
sa(dp3658
Vmachine
p3659
Vshunt
p3660
sVdata
p3661
(dp3662
Vinverter
p3663
I00
sVnRelaysOn
p3664
I0
sVprev
p3665
F26.35
sVcaps
p3666
F26.36
ssg24
F56.314983999999995
sVmillis
p3667
I349788
sg26
g27
(S'\x07\xdc\x06\x11\x152\x19\ndW'
p3668
tp3669
Rp3670
sa(dp3671
Vmachine
p3672
Vshunt
p3673
sVdata
p3674
(dp3675
Vinverter
p3676
I00
sVnRelaysOn
p3677
I0
sVprev
p3678
F26.36
sVcaps
p3679
F26.37
ssg24
F56.516935000000004
sVmillis
p3680
I349988
sg26
g27
(S'\x07\xdc\x06\x11\x152\x19\ry6'
p3681
tp3682
Rp3683
sa(dp3684
Vmachine
p3685
Vshunt
p3686
sVdata
p3687
(dp3688
Vinverter
p3689
I00
sVnRelaysOn
p3690
I0
sVprev
p3691
F26.36
sVcaps
p3692
F26.37
ssg24
F56.71727299999999
sVmillis
p3693
I350189
sg26
g27
(S'\x07\xdc\x06\x11\x152\x1a\x01E\x88'
p3694
tp3695
Rp3696
sa(dp3697
Vmachine
p3698
Vshunt
p3699
sVdata
p3700
(dp3701
Vinverter
p3702
I00
sVnRelaysOn
p3703
I0
sVprev
p3704
F26.36
sVcaps
p3705
F26.36
ssg24
F56.919734000000005
sVmillis
p3706
I350391
sg26
g27
(S'\x07\xdc\x06\x11\x152\x1a\x04\\e'
p3707
tp3708
Rp3709
sa(dp3710
Vmachine
p3711
Vshunt
p3712
sVdata
p3713
(dp3714
Vinverter
p3715
I00
sVnRelaysOn
p3716
I0
sVprev
p3717
F26.36
sVcaps
p3718
F26.37
ssg24
F57.122648999999996
sVmillis
p3719
I350593
sg26
g27
(S'\x07\xdc\x06\x11\x152\x1a\x07u\x08'
p3720
tp3721
Rp3722
sa(dp3723
Vmachine
p3724
Vshunt
p3725
sVdata
p3726
(dp3727
Vinverter
p3728
I00
sVnRelaysOn
p3729
I0
sVprev
p3730
F26.36
sVcaps
p3731
F26.37
ssg24
F57.324636999999996
sVmillis
p3732
I350794
sg26
g27
(S'\x07\xdc\x06\x11\x152\x1a\n\x8a\x0c'
p3733
tp3734
Rp3735
sa(dp3736
Vmachine
p3737
Vshunt
p3738
sVdata
p3739
(dp3740
Vinverter
p3741
I00
sVnRelaysOn
p3742
I0
sVprev
p3743
F26.37
sVcaps
p3744
F26.38
ssg24
F57.52564099999999
sVmillis
p3745
I350994
sg26
g27
(S'\x07\xdc\x06\x11\x152\x1a\r\x9b8'
p3746
tp3747
Rp3748
sa(dp3749
Vmachine
p3750
Vshunt
p3751
sVdata
p3752
(dp3753
Vinverter
p3754
I00
sVnRelaysOn
p3755
I0
sVprev
p3756
F26.37
sVcaps
p3757
F26.39
ssg24
F57.72831599999999
sVmillis
p3758
I351196
sg26
g27
(S'\x07\xdc\x06\x11\x152\x1b\x01p\xab'
p3759
tp3760
Rp3761
sa(dp3762
Vmachine
p3763
Vshunt
p3764
sVdata
p3765
(dp3766
Vinverter
p3767
I00
sVnRelaysOn
p3768
I0
sVprev
p3769
F26.37
sVcaps
p3770
F26.39
ssg24
F57.930239
sVmillis
p3771
I351397
sg26
g27
(S'\x07\xdc\x06\x11\x152\x1b\x04\x85n'
p3772
tp3773
Rp3774
sa(dp3775
Vmachine
p3776
Vshunt
p3777
sVdata
p3778
(dp3779
Vinverter
p3780
I00
sVnRelaysOn
p3781
I0
sVprev
p3782
F26.37
sVcaps
p3783
F26.39
ssg24
F58.132192
sVmillis
p3784
I351597
sg26
g27
(S'\x07\xdc\x06\x11\x152\x1b\x07\x9aO'
p3785
tp3786
Rp3787
sa(dp3788
Vmachine
p3789
Vshunt
p3790
sVdata
p3791
(dp3792
Vinverter
p3793
I00
sVnRelaysOn
p3794
I0
sVprev
p3795
F26.37
sVcaps
p3796
F26.39
ssg24
F58.333967
sVmillis
p3797
I351799
sg26
g27
(S'\x07\xdc\x06\x11\x152\x1b\n\xae~'
p3798
tp3799
Rp3800
sa(dp3801
Vmachine
p3802
Vshunt
p3803
sVdata
p3804
(dp3805
Vinverter
p3806
I00
sVnRelaysOn
p3807
I0
sVprev
p3808
F26.39
sVcaps
p3809
F26.39
ssg24
F58.52592299999999
sVmillis
p3810
I352000
sg26
g27
(S'\x07\xdc\x06\x11\x152\x1b\r\x9cR'
p3811
tp3812
Rp3813
sa(dp3814
Vmachine
p3815
Vshunt
p3816
sVdata
p3817
(dp3818
Vinverter
p3819
I00
sVnRelaysOn
p3820
I0
sVprev
p3821
F26.39
sVcaps
p3822
F26.41
ssg24
F58.72910399999999
sVmillis
p3823
I352202
sg26
g27
(S'\x07\xdc\x06\x11\x152\x1c\x01s\xbf'
p3824
tp3825
Rp3826
sa(dp3827
Vmachine
p3828
Vshunt
p3829
sVdata
p3830
(dp3831
Vinverter
p3832
I00
sVnRelaysOn
p3833
I0
sVprev
p3834
F26.39
sVcaps
p3835
F26.4
ssg24
F58.93091199999999
sVmillis
p3836
I352403
sg26
g27
(S'\x07\xdc\x06\x11\x152\x1c\x04\x88\x0f'
p3837
tp3838
Rp3839
sa(dp3840
Vmachine
p3841
Vshunt
p3842
sVdata
p3843
(dp3844
Vinverter
p3845
I00
sVnRelaysOn
p3846
I0
sVprev
p3847
F26.39
sVcaps
p3848
F26.4
ssg24
F59.132756
sVmillis
p3849
I352604
sg26
g27
(S'\x07\xdc\x06\x11\x152\x1c\x07\x9c\x83'
p3850
tp3851
Rp3852
sa(dp3853
Vmachine
p3854
Vshunt
p3855
sVdata
p3856
(dp3857
Vinverter
p3858
I00
sVnRelaysOn
p3859
I0
sVprev
p3860
F26.39
sVcaps
p3861
F26.41
ssg24
F59.333539
sVmillis
p3862
I352804
sg26
g27
(S'\x07\xdc\x06\x11\x152\x1c\n\xac\xd2'
p3863
tp3864
Rp3865
sa(dp3866
Vmachine
p3867
Vshunt
p3868
sVdata
p3869
(dp3870
Vinverter
p3871
I00
sVnRelaysOn
p3872
I0
sVprev
p3873
F26.41
sVcaps
p3874
F26.41
ssg24
F59.53614
sVmillis
p3875
I353005
sg26
g27
(S'\x07\xdc\x06\x11\x152\x1c\r\xc4;'
p3876
tp3877
Rp3878
sa(dp3879
Vmachine
p3880
Vshunt
p3881
sVdata
p3882
(dp3883
Vinverter
p3884
I00
sVnRelaysOn
p3885
I0
sVprev
p3886
F26.41
sVcaps
p3887
F26.43
ssg24
F59.738477
sVmillis
p3888
I353207
sg26
g27
(S'\x07\xdc\x06\x11\x152\x1d\x01\x98\\'
p3889
tp3890
Rp3891
sa(dp3892
Vmachine
p3893
Vshunt
p3894
sVdata
p3895
(dp3896
Vinverter
p3897
I00
sVnRelaysOn
p3898
I0
sVprev
p3899
F26.41
sVcaps
p3900
F26.41
ssg24
F59.940444
sVmillis
p3901
I353408
sg26
g27
(S'\x07\xdc\x06\x11\x152\x1d\x04\xadK'
p3902
tp3903
Rp3904
sa(dp3905
Vmachine
p3906
Vshunt
p3907
sVdata
p3908
(dp3909
Vinverter
p3910
I00
sVnRelaysOn
p3911
I0
sVprev
p3912
F26.41
sVcaps
p3913
F26.42
ssg24
F60.142444
sVmillis
p3914
I353610
sg26
g27
(S'\x07\xdc\x06\x11\x152\x1d\x07\xc2['
p3915
tp3916
Rp3917
sa(dp3918
Vmachine
p3919
Vshunt
p3920
sVdata
p3921
(dp3922
Vinverter
p3923
I00
sVnRelaysOn
p3924
I0
sVprev
p3925
F26.41
sVcaps
p3926
F26.43
ssg24
F60.34421999999999
sVmillis
p3927
I353810
sg26
g27
(S'\x07\xdc\x06\x11\x152\x1d\n\xd6\x8b'
p3928
tp3929
Rp3930
sa(dp3931
Vmachine
p3932
Vshunt
p3933
sVdata
p3934
(dp3935
Vinverter
p3936
I00
sVnRelaysOn
p3937
I0
sVprev
p3938
F26.43
sVcaps
p3939
F26.43
ssg24
F60.546008
sVmillis
p3940
I354012
sg26
g27
(S'\x07\xdc\x06\x11\x152\x1d\r\xea\xc7'
p3941
tp3942
Rp3943
sa(dp3944
Vmachine
p3945
Vshunt
p3946
sVdata
p3947
(dp3948
Vinverter
p3949
I00
sVnRelaysOn
p3950
I0
sVprev
p3951
F26.43
sVcaps
p3952
F26.45
ssg24
F60.747928
sVmillis
p3953
I354212
sg26
g27
(S'\x07\xdc\x06\x11\x152\x1e\x01\xbdG'
p3954
tp3955
Rp3956
sa(dp3957
Vmachine
p3958
Vshunt
p3959
sVdata
p3960
(dp3961
Vinverter
p3962
I00
sVnRelaysOn
p3963
I0
sVprev
p3964
F26.43
sVcaps
p3965
F26.45
ssg24
F60.939648000000005
sVmillis
p3966
I354414
sg26
g27
(S'\x07\xdc\x06\x11\x152\x1e\x04\xaa/'
p3967
tp3968
Rp3969
sa(dp3970
Vmachine
p3971
Vshunt
p3972
sVdata
p3973
(dp3974
Vinverter
p3975
I00
sVnRelaysOn
p3976
I0
sVprev
p3977
F26.43
sVcaps
p3978
F26.46
ssg24
F61.14276099999999
sVmillis
p3979
I354615
sg26
g27
(S'\x07\xdc\x06\x11\x152\x1e\x07\xc3\x98'
p3980
tp3981
Rp3982
sa(dp3983
Vmachine
p3984
Vshunt
p3985
sVdata
p3986
(dp3987
Vinverter
p3988
I00
sVnRelaysOn
p3989
I0
sVprev
p3990
F26.43
sVcaps
p3991
F26.46
ssg24
F61.344691
sVmillis
p3992
I354816
sg26
g27
(S'\x07\xdc\x06\x11\x152\x1e\n\xd8b'
p3993
tp3994
Rp3995
sa(dp3996
Vmachine
p3997
Vshunt
p3998
sVdata
p3999
(dp4000
Vinverter
p4001
I00
sVnRelaysOn
p4002
I0
sVprev
p4003
F26.46
sVcaps
p4004
F26.45
ssg24
F61.546716
sVmillis
p4005
I355018
sg26
g27
(S'\x07\xdc\x06\x11\x152\x1e\r\xed\x8b'
p4006
tp4007
Rp4008
sa(dp4009
Vmachine
p4010
Vshunt
p4011
sVdata
p4012
(dp4013
Vinverter
p4014
I00
sVnRelaysOn
p4015
I0
sVprev
p4016
F26.46
sVcaps
p4017
F26.46
ssg24
F61.748701
sVmillis
p4018
I355219
sg26
g27
(S'\x07\xdc\x06\x11\x152\x1f\x01\xc0L'
p4019
tp4020
Rp4021
sa(dp4022
Vmachine
p4023
Vshunt
p4024
sVdata
p4025
(dp4026
Vinverter
p4027
I00
sVnRelaysOn
p4028
I0
sVprev
p4029
F26.46
sVcaps
p4030
F26.47
ssg24
F61.950509999999994
sVmillis
p4031
I355420
sg26
g27
(S'\x07\xdc\x06\x11\x152\x1f\x04\xd4\x9d'
p4032
tp4033
Rp4034
sa(dp4035
Vmachine
p4036
Vshunt
p4037
sVdata
p4038
(dp4039
Vinverter
p4040
I00
sVnRelaysOn
p4041
I0
sVprev
p4042
F26.46
sVcaps
p4043
F26.46
ssg24
F62.152288
sVmillis
p4044
I355620
sg26
g27
(S'\x07\xdc\x06\x11\x152\x1f\x07\xe8\xcf'
p4045
tp4046
Rp4047
sa(dp4048
Vmachine
p4049
Vshunt
p4050
sVdata
p4051
(dp4052
Vinverter
p4053
I00
sVnRelaysOn
p4054
I0
sVprev
p4055
F26.46
sVcaps
p4056
F26.47
ssg24
F62.354488
sVmillis
p4057
I355822
sg26
g27
(S'\x07\xdc\x06\x11\x152\x1f\n\xfe\xa7'
p4058
tp4059
Rp4060
sa(dp4061
Vmachine
p4062
Vshunt
p4063
sVdata
p4064
(dp4065
Vinverter
p4066
I00
sVnRelaysOn
p4067
I0
sVprev
p4068
F26.47
sVcaps
p4069
F26.47
ssg24
F62.556132000000005
sVmillis
p4070
I356023
sg26
g27
(S'\x07\xdc\x06\x11\x152\x1f\x0e\x12S'
p4071
tp4072
Rp4073
sa(dp4074
Vmachine
p4075
Vshunt
p4076
sVdata
p4077
(dp4078
Vinverter
p4079
I00
sVnRelaysOn
p4080
I0
sVprev
p4081
F26.47
sVcaps
p4082
F26.47
ssg24
F62.757712999999995
sVmillis
p4083
I356224
sg26
g27
(S'\x07\xdc\x06\x11\x152 \x01\xe3\x80'
p4084
tp4085
Rp4086
sa(dp4087
Vmachine
p4088
Vshunt
p4089
sVdata
p4090
(dp4091
Vinverter
p4092
I00
sVnRelaysOn
p4093
I0
sVprev
p4094
F26.47
sVcaps
p4095
F26.49
ssg24
F62.960044999999994
sVmillis
p4096
I356426
sg26
g27
(S'\x07\xdc\x06\x11\x152 \x04\xf9\xdc'
p4097
tp4098
Rp4099
sa(dp4100
Vmachine
p4101
Vshunt
p4102
sVdata
p4103
(dp4104
Vinverter
p4105
I00
sVnRelaysOn
p4106
I0
sVprev
p4107
F26.47
sVcaps
p4108
F26.49
ssg24
F63.16184
sVmillis
p4109
I356626
sg26
g27
(S'\x07\xdc\x06\x11\x152 \x08\x0e\x1f'
p4110
tp4111
Rp4112
saa(lp4113
(dp4114
Vmachine
p4115
Vshunt
p4116
sVdata
p4117
(dp4118
Vinverter
p4119
I00
sVnRelaysOn
p4120
I0
sVprev
p4121
F24.95
sVcaps
p4122
F25.0
ssS'offset'
p4123
F0.0
sVmillis
p4124
I410532
sS'timestamp'
p4125
g27
(S'\x07\xdc\x06\x11\x153\x1a\x06vA'
p4126
tp4127
Rp4128
sa(dp4129
Vmachine
p4130
Vshunt
p4131
sVdata
p4132
(dp4133
Vinverter
p4134
I00
sVnRelaysOn
p4135
I0
sVprev
p4136
F24.95
sVcaps
p4137
F25.0
ssg4123
F0.20222900000000088
sVmillis
p4138
I410733
sg4125
g27
(S'\x07\xdc\x06\x11\x153\x1a\t\x8c6'
p4139
tp4140
Rp4141
sa(dp4142
Vmachine
p4143
Vshunt
p4144
sVdata
p4145
(dp4146
Vinverter
p4147
I00
sVnRelaysOn
p4148
I0
sVprev
p4149
F24.95
sVcaps
p4150
F25.03
ssg4123
F0.40367900000000034
sVmillis
p4151
I410935
sg4125
g27
(S'\x07\xdc\x06\x11\x153\x1a\x0c\x9f '
p4152
tp4153
Rp4154
sa(dp4155
Vmachine
p4156
Vshunt
p4157
sVdata
p4158
(dp4159
Vinverter
p4160
I00
sVnRelaysOn
p4161
I0
sVprev
p4162
F24.95
sVcaps
p4163
F25.03
ssg4123
F0.6068700000000007
sVmillis
p4164
I411136
sg4125
g27
(S'\x07\xdc\x06\x11\x153\x1b\x00v\x97'
p4165
tp4166
Rp4167
sa(dp4168
Vmachine
p4169
Vshunt
p4170
sVdata
p4171
(dp4172
Vinverter
p4173
I00
sVnRelaysOn
p4174
I0
sVprev
p4175
F25.03
sVcaps
p4176
F25.05
ssg4123
F0.8095669999999995
sVmillis
p4177
I411338
sg4125
g27
(S'\x07\xdc\x06\x11\x153\x1b\x03\x8e`'
p4178
tp4179
Rp4180
sa(dp4181
Vmachine
p4182
Vshunt
p4183
sVdata
p4184
(dp4185
Vinverter
p4186
I00
sVnRelaysOn
p4187
I0
sVprev
p4188
F25.03
sVcaps
p4189
F25.07
ssg4123
F1.010275
sVmillis
p4190
I411538
sg4125
g27
(S'\x07\xdc\x06\x11\x153\x1b\x06\x9ed'
p4191
tp4192
Rp4193
sa(dp4194
Vmachine
p4195
Vshunt
p4196
sVdata
p4197
(dp4198
Vinverter
p4199
I00
sVnRelaysOn
p4200
I0
sVprev
p4201
F25.03
sVcaps
p4202
F25.11
ssg4123
F1.2131039999999995
sVmillis
p4203
I411740
sg4125
g27
(S'\x07\xdc\x06\x11\x153\x1b\t\xb6\xb1'
p4204
tp4205
Rp4206
sa(dp4207
Vmachine
p4208
Vshunt
p4209
sVdata
p4210
(dp4211
Vinverter
p4212
I00
sVnRelaysOn
p4213
I0
sVprev
p4214
F25.03
sVcaps
p4215
F25.11
ssg4123
F1.4133790000000008
sVmillis
p4216
I411940
sg4125
g27
(S'\x07\xdc\x06\x11\x153\x1b\x0c\xc5\x04'
p4217
tp4218
Rp4219
sa(dp4220
Vmachine
p4221
Vshunt
p4222
sVdata
p4223
(dp4224
Vinverter
p4225
I00
sVnRelaysOn
p4226
I0
sVprev
p4227
F25.03
sVcaps
p4228
F25.12
ssg4123
F1.6166029999999996
sVmillis
p4229
I412141
sg4125
g27
(S'\x07\xdc\x06\x11\x153\x1c\x00\x9c\x9c'
p4230
tp4231
Rp4232
sa(dp4233
Vmachine
p4234
Vshunt
p4235
sVdata
p4236
(dp4237
Vinverter
p4238
I00
sVnRelaysOn
p4239
I0
sVprev
p4240
F25.12
sVcaps
p4241
F25.14
ssg4123
F1.8182139999999993
sVmillis
p4242
I412343
sg4125
g27
(S"\x07\xdc\x06\x11\x153\x1c\x03\xb0'"
p4243
tp4244
Rp4245
sa(dp4246
Vmachine
p4247
Vshunt
p4248
sVdata
p4249
(dp4250
Vinverter
p4251
I00
sVnRelaysOn
p4252
I0
sVprev
p4253
F25.12
sVcaps
p4254
F25.16
ssg4123
F2.020135
sVmillis
p4255
I412544
sg4125
g27
(S'\x07\xdc\x06\x11\x153\x1c\x06\xc4\xe8'
p4256
tp4257
Rp4258
sa(dp4259
Vmachine
p4260
Vshunt
p4261
sVdata
p4262
(dp4263
Vinverter
p4264
I00
sVnRelaysOn
p4265
I0
sVprev
p4266
F25.12
sVcaps
p4267
F25.18
ssg4123
F2.2221159999999998
sVmillis
p4268
I412746
sg4125
g27
(S'\x07\xdc\x06\x11\x153\x1c\t\xd9\xe5'
p4269
tp4270
Rp4271
sa(dp4272
Vmachine
p4273
Vshunt
p4274
sVdata
p4275
(dp4276
Vinverter
p4277
I00
sVnRelaysOn
p4278
I0
sVprev
p4279
F25.12
sVcaps
p4280
F25.18
ssg4123
F2.4137900000000005
sVmillis
p4281
I412946
sg4125
g27
(S'\x07\xdc\x06\x11\x153\x1c\x0c\xc6\x9f'
p4282
tp4283
Rp4284
sa(dp4285
Vmachine
p4286
Vshunt
p4287
sVdata
p4288
(dp4289
Vinverter
p4290
I00
sVnRelaysOn
p4291
I0
sVprev
p4292
F25.12
sVcaps
p4293
F25.21
ssg4123
F2.6167859999999994
sVmillis
p4294
I413148
sg4125
g27
(S'\x07\xdc\x06\x11\x153\x1d\x00\x9dS'
p4295
tp4296
Rp4297
sa(dp4298
Vmachine
p4299
Vshunt
p4300
sVdata
p4301
(dp4302
Vinverter
p4303
I00
sVnRelaysOn
p4304
I0
sVprev
p4305
F25.21
sVcaps
p4306
F25.2
ssg4123
F2.8175930000000005
sVmillis
p4307
I413348
sg4125
g27
(S'\x07\xdc\x06\x11\x153\x1d\x03\xad\xba'
p4308
tp4309
Rp4310
sa(dp4311
Vmachine
p4312
Vshunt
p4313
sVdata
p4314
(dp4315
Vinverter
p4316
I00
sVnRelaysOn
p4317
I0
sVprev
p4318
F25.21
sVcaps
p4319
F25.22
ssg4123
F3.020881000000001
sVmillis
p4320
I413549
sg4125
g27
(S'\x07\xdc\x06\x11\x153\x1d\x06\xc7\xd2'
p4321
tp4322
Rp4323
sa(dp4324
Vmachine
p4325
Vshunt
p4326
sVdata
p4327
(dp4328
Vinverter
p4329
I00
sVnRelaysOn
p4330
I0
sVprev
p4331
F25.21
sVcaps
p4332
F25.24
ssg4123
F3.2225260000000002
sVmillis
p4333
I413751
sg4125
g27
(S'\x07\xdc\x06\x11\x153\x1d\t\xdb\x7f'
p4334
tp4335
Rp4336
sa(dp4337
Vmachine
p4338
Vshunt
p4339
sVdata
p4340
(dp4341
Vinverter
p4342
I00
sVnRelaysOn
p4343
I0
sVprev
p4344
F25.21
sVcaps
p4345
F25.25
ssg4123
F3.4244330000000005
sVmillis
p4346
I413952
sg4125
g27
(S'\x07\xdc\x06\x11\x153\x1d\x0c\xf02'
p4347
tp4348
Rp4349
sa(dp4350
Vmachine
p4351
Vshunt
p4352
sVdata
p4353
(dp4354
Vinverter
p4355
I00
sVnRelaysOn
p4356
I0
sVprev
p4357
F25.21
sVcaps
p4358
F25.28
ssg4123
F3.6255179999999996
sVmillis
p4359
I414154
sg4125
g27
(S'\x07\xdc\x06\x11\x153\x1e\x00\xbfo'
p4360
tp4361
Rp4362
sa(dp4363
Vmachine
p4364
Vshunt
p4365
sVdata
p4366
(dp4367
Vinverter
p4368
I00
sVnRelaysOn
p4369
I0
sVprev
p4370
F25.28
sVcaps
p4371
F25.28
ssg4123
F3.828265
sVmillis
p4372
I414354
sg4125
g27
(S'\x07\xdc\x06\x11\x153\x1e\x03\xd7j'
p4373
tp4374
Rp4375
sa(dp4376
Vmachine
p4377
Vshunt
p4378
sVdata
p4379
(dp4380
Vinverter
p4381
I00
sVnRelaysOn
p4382
I0
sVprev
p4383
F25.28
sVcaps
p4384
F25.29
ssg4123
F4.030219000000001
sVmillis
p4385
I414556
sg4125
g27
(S'\x07\xdc\x06\x11\x153\x1e\x06\xecL'
p4386
tp4387
Rp4388
sa(dp4389
Vmachine
p4390
Vshunt
p4391
sVdata
p4392
(dp4393
Vinverter
p4394
I00
sVnRelaysOn
p4395
I0
sVprev
p4396
F25.28
sVcaps
p4397
F25.32
ssg4123
F4.2320329999999995
sVmillis
p4398
I414756
sg4125
g27
(S'\x07\xdc\x06\x11\x153\x1e\n\x00\xa2'
p4399
tp4400
Rp4401
sa(dp4402
Vmachine
p4403
Vshunt
p4404
sVdata
p4405
(dp4406
Vinverter
p4407
I00
sVnRelaysOn
p4408
I0
sVprev
p4409
F25.28
sVcaps
p4410
F25.33
ssg4123
F4.433897
sVmillis
p4411
I414957
sg4125
g27
(S'\x07\xdc\x06\x11\x153\x1e\r\x15*'
p4412
tp4413
Rp4414
sa(dp4415
Vmachine
p4416
Vshunt
p4417
sVdata
p4418
(dp4419
Vinverter
p4420
I00
sVnRelaysOn
p4421
I0
sVprev
p4422
F25.28
sVcaps
p4423
F25.33
ssg4123
F4.635812
sVmillis
p4424
I415159
sg4125
g27
(S'\x07\xdc\x06\x11\x153\x1f\x00\xe7\xa5'
p4425
tp4426
Rp4427
sa(dp4428
Vmachine
p4429
Vshunt
p4430
sVdata
p4431
(dp4432
Vinverter
p4433
I00
sVnRelaysOn
p4434
I0
sVprev
p4435
F25.33
sVcaps
p4436
F25.35
ssg4123
F4.8278
sVmillis
p4437
I415361
sg4125
g27
(S'\x07\xdc\x06\x11\x153\x1f\x03\xd5\x99'
p4438
tp4439
Rp4440
sa(dp4441
Vmachine
p4442
Vshunt
p4443
sVdata
p4444
(dp4445
Vinverter
p4446
I00
sVnRelaysOn
p4447
I0
sVprev
p4448
F25.33
sVcaps
p4449
F25.37
ssg4123
F5.030892
sVmillis
p4450
I415562
sg4125
g27
(S'\x07\xdc\x06\x11\x153\x1f\x06\xee\xed'
p4451
tp4452
Rp4453
sa(dp4454
Vmachine
p4455
Vshunt
p4456
sVdata
p4457
(dp4458
Vinverter
p4459
I00
sVnRelaysOn
p4460
I0
sVprev
p4461
F25.33
sVcaps
p4462
F25.39
ssg4123
F5.232692
sVmillis
p4463
I415762
sg4125
g27
(S'\x07\xdc\x06\x11\x153\x1f\n\x035'
p4464
tp4465
Rp4466
sa(dp4467
Vmachine
p4468
Vshunt
p4469
sVdata
p4470
(dp4471
Vinverter
p4472
I00
sVnRelaysOn
p4473
I0
sVprev
p4474
F25.33
sVcaps
p4475
F25.37
ssg4123
F5.434557
sVmillis
p4476
I415964
sg4125
g27
(S'\x07\xdc\x06\x11\x153\x1f\r\x17\xbe'
p4477
tp4478
Rp4479
sa(dp4480
Vmachine
p4481
Vshunt
p4482
sVdata
p4483
(dp4484
Vinverter
p4485
I00
sVnRelaysOn
p4486
I0
sVprev
p4487
F25.33
sVcaps
p4488
F25.41
ssg4123
F5.636563000000001
sVmillis
p4489
I416164
sg4125
g27
(S'\x07\xdc\x06\x11\x153 \x00\xea\x94'
p4490
tp4491
Rp4492
sa(dp4493
Vmachine
p4494
Vshunt
p4495
sVdata
p4496
(dp4497
Vinverter
p4498
I00
sVnRelaysOn
p4499
I0
sVprev
p4500
F25.41
sVcaps
p4501
F25.42
ssg4123
F5.838438999999999
sVmillis
p4502
I416365
sg4125
g27
(S'\x07\xdc\x06\x11\x153 \x03\xff('
p4503
tp4504
Rp4505
sa(dp4506
Vmachine
p4507
Vshunt
p4508
sVdata
p4509
(dp4510
Vinverter
p4511
I00
sVnRelaysOn
p4512
I0
sVprev
p4513
F25.41
sVcaps
p4514
F25.42
ssg4123
F6.040412
sVmillis
p4515
I416567
sg4125
g27
(S'\x07\xdc\x06\x11\x153 \x07\x14\x1d'
p4516
tp4517
Rp4518
sa(dp4519
Vmachine
p4520
Vshunt
p4521
sVdata
p4522
(dp4523
Vinverter
p4524
I00
sVnRelaysOn
p4525
I0
sVprev
p4526
F25.41
sVcaps
p4527
F25.46
ssg4123
F6.241154
sVmillis
p4528
I416768
sg4125
g27
(S'\x07\xdc\x06\x11\x153 \n$C'
p4529
tp4530
Rp4531
sa(dp4532
Vmachine
p4533
Vshunt
p4534
sVdata
p4535
(dp4536
Vinverter
p4537
I00
sVnRelaysOn
p4538
I0
sVprev
p4539
F25.41
sVcaps
p4540
F25.47
ssg4123
F6.444192000000001
sVmillis
p4541
I416970
sg4125
g27
(S'\x07\xdc\x06\x11\x153 \r=a'
p4542
tp4543
Rp4544
sa(dp4545
Vmachine
p4546
Vshunt
p4547
sVdata
p4548
(dp4549
Vinverter
p4550
I00
sVnRelaysOn
p4551
I0
sVprev
p4552
F25.41
sVcaps
p4553
F25.46
ssg4123
F6.646510000000001
sVmillis
p4554
I417171
sg4125
g27
(S'\x07\xdc\x06\x11\x153!\x01\x11o'
p4555
tp4556
Rp4557
sa(dp4558
Vmachine
p4559
Vshunt
p4560
sVdata
p4561
(dp4562
Vinverter
p4563
I00
sVnRelaysOn
p4564
I0
sVprev
p4565
F25.46
sVcaps
p4566
F25.46
ssg4123
F6.846948000000001
sVmillis
p4567
I417372
sg4125
g27
(S'\x07\xdc\x06\x11\x153!\x04 e'
p4568
tp4569
Rp4570
sa(dp4571
Vmachine
p4572
Vshunt
p4573
sVdata
p4574
(dp4575
Vinverter
p4576
I00
sVnRelaysOn
p4577
I0
sVprev
p4578
F25.46
sVcaps
p4579
F25.48
ssg4123
F7.048866
sVmillis
p4580
I417572
sg4125
g27
(S'\x07\xdc\x06\x11\x153!\x075#'
p4581
tp4582
Rp4583
sa(dp4584
Vmachine
p4585
Vshunt
p4586
sVdata
p4587
(dp4588
Vinverter
p4589
I00
sVnRelaysOn
p4590
I0
sVprev
p4591
F25.46
sVcaps
p4592
F25.49
ssg4123
F7.240639999999999
sVmillis
p4593
I417773
sg4125
g27
(S'\x07\xdc\x06\x11\x153!\n"A'
p4594
tp4595
Rp4596
sa(dp4597
Vmachine
p4598
Vshunt
p4599
sVdata
p4600
(dp4601
Vinverter
p4602
I00
sVnRelaysOn
p4603
I0
sVprev
p4604
F25.46
sVcaps
p4605
F25.51
ssg4123
F7.443660000000001
sVmillis
p4606
I417975
sg4125
g27
(S'\x07\xdc\x06\x11\x153!\r;M'
p4607
tp4608
Rp4609
sa(dp4610
Vmachine
p4611
Vshunt
p4612
sVdata
p4613
(dp4614
Vinverter
p4615
I00
sVnRelaysOn
p4616
I0
sVprev
p4617
F25.46
sVcaps
p4618
F25.51
ssg4123
F7.645626
sVmillis
p4619
I418176
sg4125
g27
(S'\x07\xdc\x06\x11\x153"\x01\r\xfb'
p4620
tp4621
Rp4622
sa(dp4623
Vmachine
p4624
Vshunt
p4625
sVdata
p4626
(dp4627
Vinverter
p4628
I00
sVnRelaysOn
p4629
I0
sVprev
p4630
F25.51
sVcaps
p4631
F25.54
ssg4123
F7.847632000000001
sVmillis
p4632
I418378
sg4125
g27
(S'\x07\xdc\x06\x11\x153"\x04#\x11'
p4633
tp4634
Rp4635
sa(dp4636
Vmachine
p4637
Vshunt
p4638
sVdata
p4639
(dp4640
Vinverter
p4641
I00
sVnRelaysOn
p4642
I0
sVprev
p4643
F25.51
sVcaps
p4644
F25.54
ssg4123
F8.049464
sVmillis
p4645
I418578
sg4125
g27
(S'\x07\xdc\x06\x11\x153"\x077y'
p4646
tp4647
Rp4648
sa(dp4649
Vmachine
p4650
Vshunt
p4651
sVdata
p4652
(dp4653
Vinverter
p4654
I00
sVnRelaysOn
p4655
I0
sVprev
p4656
F25.51
sVcaps
p4657
F25.56
ssg4123
F8.251301999999999
sVmillis
p4658
I418780
sg4125
g27
(S'\x07\xdc\x06\x11\x153"\nK\xe7'
p4659
tp4660
Rp4661
sa(dp4662
Vmachine
p4663
Vshunt
p4664
sVdata
p4665
(dp4666
Vinverter
p4667
I00
sVnRelaysOn
p4668
I0
sVprev
p4669
F25.51
sVcaps
p4670
F25.6
ssg4123
F8.453284
sVmillis
p4671
I418980
sg4125
g27
(S'\x07\xdc\x06\x11\x153"\r`\xe5'
p4672
tp4673
Rp4674
sa(dp4675
Vmachine
p4676
Vshunt
p4677
sVdata
p4678
(dp4679
Vinverter
p4680
I00
sVnRelaysOn
p4681
I0
sVprev
p4682
F25.51
sVcaps
p4683
F25.6
ssg4123
F8.655117
sVmillis
p4684
I419182
sg4125
g27
(S'\x07\xdc\x06\x11\x153#\x013\x0e'
p4685
tp4686
Rp4687
sa(dp4688
Vmachine
p4689
Vshunt
p4690
sVdata
p4691
(dp4692
Vinverter
p4693
I00
sVnRelaysOn
p4694
I0
sVprev
p4695
F25.6
sVcaps
p4696
F25.61
ssg4123
F8.85737
sVmillis
p4697
I419383
sg4125
g27
(S'\x07\xdc\x06\x11\x153#\x04I\x1b'
p4698
tp4699
Rp4700
sa(dp4701
Vmachine
p4702
Vshunt
p4703
sVdata
p4704
(dp4705
Vinverter
p4706
I00
sVnRelaysOn
p4707
I0
sVprev
p4708
F25.6
sVcaps
p4709
F25.6
ssg4123
F9.058966000000002
sVmillis
p4710
I419585
sg4125
g27
(S'\x07\xdc\x06\x11\x153#\x07\\\x97'
p4711
tp4712
Rp4713
sa(dp4714
Vmachine
p4715
Vshunt
p4716
sVdata
p4717
(dp4718
Vinverter
p4719
I00
sVnRelaysOn
p4720
I0
sVprev
p4721
F25.6
sVcaps
p4722
F25.62
ssg4123
F9.259387
sVmillis
p4723
I419786
sg4125
g27
(S'\x07\xdc\x06\x11\x153#\nk|'
p4724
tp4725
Rp4726
sa(dp4727
Vmachine
p4728
Vshunt
p4729
sVdata
p4730
(dp4731
Vinverter
p4732
I00
sVnRelaysOn
p4733
I0
sVprev
p4734
F25.6
sVcaps
p4735
F25.64
ssg4123
F9.461299
sVmillis
p4736
I419986
sg4125
g27
(S'\x07\xdc\x06\x11\x153#\r\x804'
p4737
tp4738
Rp4739
sa(dp4740
Vmachine
p4741
Vshunt
p4742
sVdata
p4743
(dp4744
Vinverter
p4745
I00
sVnRelaysOn
p4746
I0
sVprev
p4747
F25.6
sVcaps
p4748
F25.66
ssg4123
F9.664644
sVmillis
p4749
I420188
sg4125
g27
(S'\x07\xdc\x06\x11\x153$\x01XE'
p4750
tp4751
Rp4752
sa(dp4753
Vmachine
p4754
Vshunt
p4755
sVdata
p4756
(dp4757
Vinverter
p4758
I00
sVnRelaysOn
p4759
I0
sVprev
p4760
F25.66
sVcaps
p4761
F25.68
ssg4123
F9.856691999999999
sVmillis
p4762
I420388
sg4125
g27
(S'\x07\xdc\x06\x11\x153$\x04Fu'
p4763
tp4764
Rp4765
sa(dp4766
Vmachine
p4767
Vshunt
p4768
sVdata
p4769
(dp4770
Vinverter
p4771
I00
sVnRelaysOn
p4772
I0
sVprev
p4773
F25.66
sVcaps
p4774
F25.69
ssg4123
F10.058606999999999
sVmillis
p4775
I420589
sg4125
g27
(S'\x07\xdc\x06\x11\x153$\x07[0'
p4776
tp4777
Rp4778
sa(dp4779
Vmachine
p4780
Vshunt
p4781
sVdata
p4782
(dp4783
Vinverter
p4784
I00
sVnRelaysOn
p4785
I0
sVprev
p4786
F25.66
sVcaps
p4787
F25.7
ssg4123
F10.260466999999998
sVmillis
p4788
I420791
sg4125
g27
(S'\x07\xdc\x06\x11\x153$\no\xb4'
p4789
tp4790
Rp4791
sa(dp4792
Vmachine
p4793
Vshunt
p4794
sVdata
p4795
(dp4796
Vinverter
p4797
I00
sVnRelaysOn
p4798
I0
sVprev
p4799
F25.66
sVcaps
p4800
F25.71
ssg4123
F10.462458000000002
sVmillis
p4801
I420992
sg4125
g27
(S'\x07\xdc\x06\x11\x153$\r\x84\xbb'
p4802
tp4803
Rp4804
sa(dp4805
Vmachine
p4806
Vshunt
p4807
sVdata
p4808
(dp4809
Vinverter
p4810
I00
sVnRelaysOn
p4811
I0
sVprev
p4812
F25.66
sVcaps
p4813
F25.73
ssg4123
F10.664449000000001
sVmillis
p4814
I421194
sg4125
g27
(S'\x07\xdc\x06\x11\x153%\x01W\x82'
p4815
tp4816
Rp4817
sa(dp4818
Vmachine
p4819
Vshunt
p4820
sVdata
p4821
(dp4822
Vinverter
p4823
I00
sVnRelaysOn
p4824
I0
sVprev
p4825
F25.73
sVcaps
p4826
F25.74
ssg4123
F10.866242
sVmillis
p4827
I421394
sg4125
g27
(S'\x07\xdc\x06\x11\x153%\x04k\xc3'
p4828
tp4829
Rp4830
sa(dp4831
Vmachine
p4832
Vshunt
p4833
sVdata
p4834
(dp4835
Vinverter
p4836
I00
sVnRelaysOn
p4837
I0
sVprev
p4838
F25.73
sVcaps
p4839
F25.77
ssg4123
F11.068166000000002
sVmillis
p4840
I421596
sg4125
g27
(S'\x07\xdc\x06\x11\x153%\x07\x80\x87'
p4841
tp4842
Rp4843
sa(dp4844
Vmachine
p4845
Vshunt
p4846
sVdata
p4847
(dp4848
Vinverter
p4849
I00
sVnRelaysOn
p4850
I0
sVprev
p4851
F25.73
sVcaps
p4852
F25.76
ssg4123
F11.27006
sVmillis
p4853
I421796
sg4125
g27
(S'\x07\xdc\x06\x11\x153%\n\x95-'
p4854
tp4855
Rp4856
sa(dp4857
Vmachine
p4858
Vshunt
p4859
sVdata
p4860
(dp4861
Vinverter
p4862
I00
sVnRelaysOn
p4863
I0
sVprev
p4864
F25.73
sVcaps
p4865
F25.79
ssg4123
F11.471938999999999
sVmillis
p4866
I421997
sg4125
g27
(S'\x07\xdc\x06\x11\x153%\r\xa9\xc4'
p4867
tp4868
Rp4869
sa(dp4870
Vmachine
p4871
Vshunt
p4872
sVdata
p4873
(dp4874
Vinverter
p4875
I00
sVnRelaysOn
p4876
I0
sVprev
p4877
F25.73
sVcaps
p4878
F25.79
ssg4123
F11.673822000000001
sVmillis
p4879
I422199
sg4125
g27
(S'\x07\xdc\x06\x11\x153&\x01|\x1f'
p4880
tp4881
Rp4882
sa(dp4883
Vmachine
p4884
Vshunt
p4885
sVdata
p4886
(dp4887
Vinverter
p4888
I00
sVnRelaysOn
p4889
I0
sVprev
p4890
F25.79
sVcaps
p4891
F25.79
ssg4123
F11.875744999999998
sVmillis
p4892
I422400
sg4125
g27
(S'\x07\xdc\x06\x11\x153&\x04\x90\xe2'
p4893
tp4894
Rp4895
sa(dp4896
Vmachine
p4897
Vshunt
p4898
sVdata
p4899
(dp4900
Vinverter
p4901
I00
sVnRelaysOn
p4902
I0
sVprev
p4903
F25.79
sVcaps
p4904
F25.81
ssg4123
F12.077770000000001
sVmillis
p4905
I422602
sg4125
g27
(S'\x07\xdc\x06\x11\x153&\x07\xa6\x0b'
p4906
tp4907
Rp4908
sa(dp4909
Vmachine
p4910
Vshunt
p4911
sVdata
p4912
(dp4913
Vinverter
p4914
I00
sVnRelaysOn
p4915
I0
sVprev
p4916
F25.79
sVcaps
p4917
F25.84
ssg4123
F12.279547
sVmillis
p4918
I422802
sg4125
g27
(S'\x07\xdc\x06\x11\x153&\n\xba<'
p4919
tp4920
Rp4921
sa(dp4922
Vmachine
p4923
Vshunt
p4924
sVdata
p4925
(dp4926
Vinverter
p4927
I00
sVnRelaysOn
p4928
I0
sVprev
p4929
F25.79
sVcaps
p4930
F25.85
ssg4123
F12.471353
sVmillis
p4931
I423004
sg4125
g27
(S'\x07\xdc\x06\x11\x153&\r\xa7z'
p4932
tp4933
Rp4934
sa(dp4935
Vmachine
p4936
Vshunt
p4937
sVdata
p4938
(dp4939
Vinverter
p4940
I00
sVnRelaysOn
p4941
I0
sVprev
p4942
F25.79
sVcaps
p4943
F25.85
ssg4123
F12.674443
sVmillis
p4944
I423204
sg4125
g27
(S"\x07\xdc\x06\x11\x153'\x01~\x8c"
p4945
tp4946
Rp4947
sa(dp4948
Vmachine
p4949
Vshunt
p4950
sVdata
p4951
(dp4952
Vinverter
p4953
I00
sVnRelaysOn
p4954
I0
sVprev
p4955
F25.85
sVcaps
p4956
F25.87
ssg4123
F12.87632
sVmillis
p4957
I423405
sg4125
g27
(S"\x07\xdc\x06\x11\x153'\x04\x93!"
p4958
tp4959
Rp4960
sa(dp4961
Vmachine
p4962
Vshunt
p4963
sVdata
p4964
(dp4965
Vinverter
p4966
I00
sVnRelaysOn
p4967
I0
sVprev
p4968
F25.85
sVcaps
p4969
F25.87
ssg4123
F13.078495
sVmillis
p4970
I423607
sg4125
g27
(S"\x07\xdc\x06\x11\x153'\x07\xa8\xe0"
p4971
tp4972
Rp4973
sa(dp4974
Vmachine
p4975
Vshunt
p4976
sVdata
p4977
(dp4978
Vinverter
p4979
I00
sVnRelaysOn
p4980
I0
sVprev
p4981
F25.85
sVcaps
p4982
F25.87
ssg4123
F13.279556
sVmillis
p4983
I423808
sg4125
g27
(S"\x07\xdc\x06\x11\x153'\n\xbaE"
p4984
tp4985
Rp4986
sa(dp4987
Vmachine
p4988
Vshunt
p4989
sVdata
p4990
(dp4991
Vinverter
p4992
I00
sVnRelaysOn
p4993
I0
sVprev
p4994
F25.85
sVcaps
p4995
F25.87
ssg4123
F13.482616
sVmillis
p4996
I424010
sg4125
g27
(S"\x07\xdc\x06\x11\x153'\r\xd3y"
p4997
tp4998
Rp4999
sa(dp5000
Vmachine
p5001
Vshunt
p5002
sVdata
p5003
(dp5004
Vinverter
p5005
I00
sVnRelaysOn
p5006
I0
sVprev
p5007
F25.85
sVcaps
p5008
F25.89
ssg4123
F13.683879999999998
sVmillis
p5009
I424210
sg4125
g27
(S'\x07\xdc\x06\x11\x153(\x01\xa3i'
p5010
tp5011
Rp5012
sa(dp5013
Vmachine
p5014
Vshunt
p5015
sVdata
p5016
(dp5017
Vinverter
p5018
I00
sVnRelaysOn
p5019
I0
sVprev
p5020
F25.89
sVcaps
p5021
F25.89
ssg4123
F13.885003000000001
sVmillis
p5022
I424412
sg4125
g27
(S'\x07\xdc\x06\x11\x153(\x04\xb5\x0c'
p5023
tp5024
Rp5025
sa(dp5026
Vmachine
p5027
Vshunt
p5028
sVdata
p5029
(dp5030
Vinverter
p5031
I00
sVnRelaysOn
p5032
I0
sVprev
p5033
F25.89
sVcaps
p5034
F25.92
ssg4123
F14.087717999999999
sVmillis
p5035
I424612
sg4125
g27
(S'\x07\xdc\x06\x11\x153(\x07\xcc\xe7'
p5036
tp5037
Rp5038
sa(dp5039
Vmachine
p5040
Vshunt
p5041
sVdata
p5042
(dp5043
Vinverter
p5044
I00
sVnRelaysOn
p5045
I0
sVprev
p5046
F25.89
sVcaps
p5047
F25.92
ssg4123
F14.289536000000002
sVmillis
p5048
I424813
sg4125
g27
(S'\x07\xdc\x06\x11\x153(\n\xe1A'
p5049
tp5050
Rp5051
sa(dp5052
Vmachine
p5053
Vshunt
p5054
sVdata
p5055
(dp5056
Vinverter
p5057
I00
sVnRelaysOn
p5058
I0
sVprev
p5059
F25.89
sVcaps
p5060
F25.92
ssg4123
F14.491432
sVmillis
p5061
I425015
sg4125
g27
(S'\x07\xdc\x06\x11\x153(\r\xf5\xe9'
p5062
tp5063
Rp5064
sa(dp5065
Vmachine
p5066
Vshunt
p5067
sVdata
p5068
(dp5069
Vinverter
p5070
I00
sVnRelaysOn
p5071
I0
sVprev
p5072
F25.89
sVcaps
p5073
F25.93
ssg4123
F14.683278000000001
sVmillis
p5074
I425216
sg4125
g27
(S'\x07\xdc\x06\x11\x153)\x01\xa1\x0f'
p5075
tp5076
Rp5077
sa(dp5078
Vmachine
p5079
Vshunt
p5080
sVdata
p5081
(dp5082
Vinverter
p5083
I00
sVnRelaysOn
p5084
I0
sVprev
p5085
F25.93
sVcaps
p5086
F25.93
ssg4123
F14.885342999999999
sVmillis
p5087
I425418
sg4125
g27
(S'\x07\xdc\x06\x11\x153)\x04\xb6`'
p5088
tp5089
Rp5090
sa(dp5091
Vmachine
p5092
Vshunt
p5093
sVdata
p5094
(dp5095
Vinverter
p5096
I00
sVnRelaysOn
p5097
I0
sVprev
p5098
F25.93
sVcaps
p5099
F25.93
ssg4123
F15.087245
sVmillis
p5100
I425618
sg4125
g27
(S'\x07\xdc\x06\x11\x153)\x07\xcb\x0e'
p5101
tp5102
Rp5103
sa(dp5104
Vmachine
p5105
Vshunt
p5106
sVdata
p5107
(dp5108
Vinverter
p5109
I00
sVnRelaysOn
p5110
I0
sVprev
p5111
F25.93
sVcaps
p5112
F25.95
ssg4123
F15.288737000000001
sVmillis
p5113
I425820
sg4125
g27
(S'\x07\xdc\x06\x11\x153)\n\xde"'
p5114
tp5115
Rp5116
sa(dp5117
Vmachine
p5118
Vshunt
p5119
sVdata
p5120
(dp5121
Vinverter
p5122
I00
sVnRelaysOn
p5123
I0
sVprev
p5124
F25.93
sVcaps
p5125
F25.97
ssg4123
F15.491128
sVmillis
p5126
I426020
sg4125
g27
(S'\x07\xdc\x06\x11\x153)\r\xf4\xb9'
p5127
tp5128
Rp5129
sa(dp5130
Vmachine
p5131
Vshunt
p5132
sVdata
p5133
(dp5134
Vinverter
p5135
I00
sVnRelaysOn
p5136
I0
sVprev
p5137
F25.93
sVcaps
p5138
F25.98
ssg4123
F15.693373000000001
sVmillis
p5139
I426221
sg4125
g27
(S'\x07\xdc\x06\x11\x153*\x01\xc8~'
p5140
tp5141
Rp5142
sa(dp5143
Vmachine
p5144
Vshunt
p5145
sVdata
p5146
(dp5147
Vinverter
p5148
I00
sVnRelaysOn
p5149
I0
sVprev
p5150
F25.98
sVcaps
p5151
F25.98
ssg4123
F15.894981000000001
sVmillis
p5152
I426423
sg4125
g27
(S'\x07\xdc\x06\x11\x153*\x04\xdc\x06'
p5153
tp5154
Rp5155
sa(dp5156
Vmachine
p5157
Vshunt
p5158
sVdata
p5159
(dp5160
Vinverter
p5161
I00
sVnRelaysOn
p5162
I0
sVprev
p5163
F25.98
sVcaps
p5164
F25.98
ssg4123
F16.096865
sVmillis
p5165
I426624
sg4125
g27
(S'\x07\xdc\x06\x11\x153*\x07\xf0\xa2'
p5166
tp5167
Rp5168
sa(dp5169
Vmachine
p5170
Vshunt
p5171
sVdata
p5172
(dp5173
Vinverter
p5174
I00
sVnRelaysOn
p5175
I0
sVprev
p5176
F25.98
sVcaps
p5177
F26.0
ssg4123
F16.298837
sVmillis
p5178
I426826
sg4125
g27
(S'\x07\xdc\x06\x11\x153*\x0b\x05\x96'
p5179
tp5180
Rp5181
sa(dp5182
Vmachine
p5183
Vshunt
p5184
sVdata
p5185
(dp5186
Vinverter
p5187
I00
sVnRelaysOn
p5188
I0
sVprev
p5189
F25.98
sVcaps
p5190
F25.99
ssg4123
F16.500671
sVmillis
p5191
I427026
sg4125
g27
(S'\x07\xdc\x06\x11\x153*\x0e\x1a\x00'
p5192
tp5193
Rp5194
sa(dp5195
Vmachine
p5196
Vshunt
p5197
sVdata
p5198
(dp5199
Vinverter
p5200
I00
sVnRelaysOn
p5201
I0
sVprev
p5202
F25.98
sVcaps
p5203
F26.01
ssg4123
F16.702468
sVmillis
p5204
I427228
sg4125
g27
(S'\x07\xdc\x06\x11\x153+\x01\xec\x05'
p5205
tp5206
Rp5207
sa(dp5208
Vmachine
p5209
Vshunt
p5210
sVdata
p5211
(dp5212
Vinverter
p5213
I00
sVnRelaysOn
p5214
I0
sVprev
p5215
F26.01
sVcaps
p5216
F26.02
ssg4123
F16.90443
sVmillis
p5217
I427428
sg4125
g27
(S'\x07\xdc\x06\x11\x153+\x05\x00\xef'
p5218
tp5219
Rp5220
sa(dp5221
Vmachine
p5222
Vshunt
p5223
sVdata
p5224
(dp5225
Vinverter
p5226
I00
sVnRelaysOn
p5227
I0
sVprev
p5228
F26.01
sVcaps
p5229
F26.02
ssg4123
F17.096285
sVmillis
p5230
I427629
sg4125
g27
(S'\x07\xdc\x06\x11\x153+\x07\xee^'
p5231
tp5232
Rp5233
sa(dp5234
Vmachine
p5235
Vshunt
p5236
sVdata
p5237
(dp5238
Vinverter
p5239
I00
sVnRelaysOn
p5240
I0
sVprev
p5241
F26.01
sVcaps
p5242
F26.03
ssg4123
F17.299263
sVmillis
p5243
I427831
sg4125
g27
(S'\x07\xdc\x06\x11\x153+\x0b\x07@'
p5244
tp5245
Rp5246
sa(dp5247
Vmachine
p5248
Vshunt
p5249
sVdata
p5250
(dp5251
Vinverter
p5252
I00
sVnRelaysOn
p5253
I0
sVprev
p5254
F26.01
sVcaps
p5255
F26.04
ssg4123
F17.502285
sVmillis
p5256
I428032
sg4125
g27
(S'\x07\xdc\x06\x11\x153+\x0e N'
p5257
tp5258
Rp5259
sa(dp5260
Vmachine
p5261
Vshunt
p5262
sVdata
p5263
(dp5264
Vinverter
p5265
I00
sVnRelaysOn
p5266
I0
sVprev
p5267
F26.01
sVcaps
p5268
F26.06
ssg4123
F17.703261
sVmillis
p5269
I428234
sg4125
g27
(S'\x07\xdc\x06\x11\x153,\x01\xef\x1e'
p5270
tp5271
Rp5272
sa(dp5273
Vmachine
p5274
Vshunt
p5275
sVdata
p5276
(dp5277
Vinverter
p5278
I00
sVnRelaysOn
p5279
I0
sVprev
p5280
F26.06
sVcaps
p5281
F26.07
ssg4123
F17.905393
sVmillis
p5282
I428434
sg4125
g27
(S'\x07\xdc\x06\x11\x153,\x05\x04\xb2'
p5283
tp5284
Rp5285
sa(dp5286
Vmachine
p5287
Vshunt
p5288
sVdata
p5289
(dp5290
Vinverter
p5291
I00
sVnRelaysOn
p5292
I0
sVprev
p5293
F26.06
sVcaps
p5294
F26.08
ssg4123
F18.106962
sVmillis
p5295
I428636
sg4125
g27
(S'\x07\xdc\x06\x11\x153,\x08\x18\x13'
p5296
tp5297
Rp5298
sa(dp5299
Vmachine
p5300
Vshunt
p5301
sVdata
p5302
(dp5303
Vinverter
p5304
I00
sVnRelaysOn
p5305
I0
sVprev
p5306
F26.06
sVcaps
p5307
F26.1
ssg4123
F18.308926
sVmillis
p5308
I428836
sg4125
g27
(S'\x07\xdc\x06\x11\x153,\x0b,\xff'
p5309
tp5310
Rp5311
sa(dp5312
Vmachine
p5313
Vshunt
p5314
sVdata
p5315
(dp5316
Vinverter
p5317
I00
sVnRelaysOn
p5318
I0
sVprev
p5319
F26.06
sVcaps
p5320
F26.12
ssg4123
F18.51073
sVmillis
p5321
I429037
sg4125
g27
(S'\x07\xdc\x06\x11\x153,\x0eAK'
p5322
tp5323
Rp5324
sa(dp5325
Vmachine
p5326
Vshunt
p5327
sVdata
p5328
(dp5329
Vinverter
p5330
I00
sVnRelaysOn
p5331
I0
sVprev
p5332
F26.06
sVcaps
p5333
F26.12
ssg4123
F18.712571
sVmillis
p5334
I429239
sg4125
g27
(S'\x07\xdc\x06\x11\x153-\x02\x13|'
p5335
tp5336
Rp5337
sa(dp5338
Vmachine
p5339
Vshunt
p5340
sVdata
p5341
(dp5342
Vinverter
p5343
I00
sVnRelaysOn
p5344
I0
sVprev
p5345
F26.12
sVcaps
p5346
F26.13
ssg4123
F18.914686
sVmillis
p5347
I429440
sg4125
g27
(S'\x07\xdc\x06\x11\x153-\x05(\xff'
p5348
tp5349
Rp5350
sa(dp5351
Vmachine
p5352
Vshunt
p5353
sVdata
p5354
(dp5355
Vinverter
p5356
I00
sVnRelaysOn
p5357
I0
sVprev
p5358
F26.12
sVcaps
p5359
F26.14
ssg4123
F19.11655
sVmillis
p5360
I429642
sg4125
g27
(S'\x07\xdc\x06\x11\x153-\x08=\x87'
p5361
tp5362
Rp5363
sa(dp5364
Vmachine
p5365
Vshunt
p5366
sVdata
p5367
(dp5368
Vinverter
p5369
I00
sVnRelaysOn
p5370
I0
sVprev
p5371
F26.12
sVcaps
p5372
F26.16
ssg4123
F19.318397
sVmillis
p5373
I429842
sg4125
g27
(S'\x07\xdc\x06\x11\x153-\x0bQ\xfe'
p5374
tp5375
Rp5376
sa(dp5377
Vmachine
p5378
Vshunt
p5379
sVdata
p5380
(dp5381
Vinverter
p5382
I00
sVnRelaysOn
p5383
I0
sVprev
p5384
F26.12
sVcaps
p5385
F26.17
ssg4123
F19.52029
sVmillis
p5386
I430044
sg4125
g27
(S'\x07\xdc\x06\x11\x153-\x0ef\xa3'
p5387
tp5388
Rp5389
sa(dp5390
Vmachine
p5391
Vshunt
p5392
sVdata
p5393
(dp5394
Vinverter
p5395
I00
sVnRelaysOn
p5396
I0
sVprev
p5397
F26.12
sVcaps
p5398
F26.16
ssg4123
F19.712189
sVmillis
p5399
I430244
sg4125
g27
(S'\x07\xdc\x06\x11\x153.\x02\x11\xfe'
p5400
tp5401
Rp5402
sa(dp5403
Vmachine
p5404
Vshunt
p5405
sVdata
p5406
(dp5407
Vinverter
p5408
I00
sVnRelaysOn
p5409
I0
sVprev
p5410
F26.16
sVcaps
p5411
F26.17
ssg4123
F19.914128
sVmillis
p5412
I430445
sg4125
g27
(S'\x07\xdc\x06\x11\x153.\x05&\xd1'
p5413
tp5414
Rp5415
sa(dp5416
Vmachine
p5417
Vshunt
p5418
sVdata
p5419
(dp5420
Vinverter
p5421
I00
sVnRelaysOn
p5422
I0
sVprev
p5423
F26.16
sVcaps
p5424
F26.18
ssg4123
F20.116045
sVmillis
p5425
I430647
sg4125
g27
(S'\x07\xdc\x06\x11\x153.\x08;\x8e'
p5426
tp5427
Rp5428
sa(dp5429
Vmachine
p5430
Vshunt
p5431
sVdata
p5432
(dp5433
Vinverter
p5434
I00
sVnRelaysOn
p5435
I0
sVprev
p5436
F26.16
sVcaps
p5437
F26.18
ssg4123
F20.317894
sVmillis
p5438
I430848
sg4125
g27
(S'\x07\xdc\x06\x11\x153.\x0bP\x07'
p5439
tp5440
Rp5441
sa(dp5442
Vmachine
p5443
Vshunt
p5444
sVdata
p5445
(dp5446
Vinverter
p5447
I00
sVnRelaysOn
p5448
I0
sVprev
p5449
F26.16
sVcaps
p5450
F26.2
ssg4123
F20.522118
sVmillis
p5451
I431050
sg4125
g27
(S'\x07\xdc\x06\x11\x153.\x0em\xc7'
p5452
tp5453
Rp5454
sa(dp5455
Vmachine
p5456
Vshunt
p5457
sVdata
p5458
(dp5459
Vinverter
p5460
I00
sVnRelaysOn
p5461
I0
sVprev
p5462
F26.16
sVcaps
p5463
F26.2
ssg4123
F20.722675
sVmillis
p5464
I431250
sg4125
g27
(S'\x07\xdc\x06\x11\x153/\x02:\xf4'
p5465
tp5466
Rp5467
sa(dp5468
Vmachine
p5469
Vshunt
p5470
sVdata
p5471
(dp5472
Vinverter
p5473
I00
sVnRelaysOn
p5474
I0
sVprev
p5475
F26.2
sVcaps
p5476
F26.19
ssg4123
F20.924706
sVmillis
p5477
I431452
sg4125
g27
(S'\x07\xdc\x06\x11\x153/\x05P#'
p5478
tp5479
Rp5480
sa(dp5481
Vmachine
p5482
Vshunt
p5483
sVdata
p5484
(dp5485
Vinverter
p5486
I00
sVnRelaysOn
p5487
I0
sVprev
p5488
F26.2
sVcaps
p5489
F26.2
ssg4123
F21.12658
sVmillis
p5490
I431652
sg4125
g27
(S'\x07\xdc\x06\x11\x153/\x08d\xb5'
p5491
tp5492
Rp5493
sa(dp5494
Vmachine
p5495
Vshunt
p5496
sVdata
p5497
(dp5498
Vinverter
p5499
I00
sVnRelaysOn
p5500
I0
sVprev
p5501
F26.2
sVcaps
p5502
F26.21
ssg4123
F21.327603
sVmillis
p5503
I431853
sg4125
g27
(S'\x07\xdc\x06\x11\x153/\x0bu\xf4'
p5504
tp5505
Rp5506
sa(dp5507
Vmachine
p5508
Vshunt
p5509
sVdata
p5510
(dp5511
Vinverter
p5512
I00
sVnRelaysOn
p5513
I0
sVprev
p5514
F26.2
sVcaps
p5515
F26.22
ssg4123
F21.530777
sVmillis
p5516
I432055
sg4125
g27
(S'\x07\xdc\x06\x11\x153/\x0e\x8f\x9a'
p5517
tp5518
Rp5519
sa(dp5520
Vmachine
p5521
Vshunt
p5522
sVdata
p5523
(dp5524
Vinverter
p5525
I00
sVnRelaysOn
p5526
I0
sVprev
p5527
F26.2
sVcaps
p5528
F26.22
ssg4123
F21.732268
sVmillis
p5529
I432256
sg4125
g27
(S'\x07\xdc\x06\x11\x1530\x02`m'
p5530
tp5531
Rp5532
sa(dp5533
Vmachine
p5534
Vshunt
p5535
sVdata
p5536
(dp5537
Vinverter
p5538
I00
sVnRelaysOn
p5539
I0
sVprev
p5540
F26.22
sVcaps
p5541
F26.22
ssg4123
F21.933457
sVmillis
p5542
I432458
sg4125
g27
(S'\x07\xdc\x06\x11\x1530\x05rR'
p5543
tp5544
Rp5545
sa(dp5546
Vmachine
p5547
Vshunt
p5548
sVdata
p5549
(dp5550
Vinverter
p5551
I00
sVnRelaysOn
p5552
I0
sVprev
p5553
F26.22
sVcaps
p5554
F26.24
ssg4123
F22.125065
sVmillis
p5555
I432659
sg4125
g27
(S'\x07\xdc\x06\x11\x1530\x08^\xca'
p5556
tp5557
Rp5558
sa(dp5559
Vmachine
p5560
Vshunt
p5561
sVdata
p5562
(dp5563
Vinverter
p5564
I00
sVnRelaysOn
p5565
I0
sVprev
p5566
F26.22
sVcaps
p5567
F26.25
ssg4123
F22.327984
sVmillis
p5568
I432860
sg4125
g27
(S'\x07\xdc\x06\x11\x1530\x0bwq'
p5569
tp5570
Rp5571
sa(dp5572
Vmachine
p5573
Vshunt
p5574
sVdata
p5575
(dp5576
Vinverter
p5577
I00
sVnRelaysOn
p5578
I0
sVprev
p5579
F26.22
sVcaps
p5580
F26.26
ssg4123
F22.52987
sVmillis
p5581
I433060
sg4125
g27
(S'\x07\xdc\x06\x11\x1530\x0e\x8c\x0f'
p5582
tp5583
Rp5584
sa(dp5585
Vmachine
p5586
Vshunt
p5587
sVdata
p5588
(dp5589
Vinverter
p5590
I00
sVnRelaysOn
p5591
I0
sVprev
p5592
F26.22
sVcaps
p5593
F26.27
ssg4123
F22.731134
sVmillis
p5594
I433262
sg4125
g27
(S'\x07\xdc\x06\x11\x1531\x02[\xff'
p5595
tp5596
Rp5597
sa(dp5598
Vmachine
p5599
Vshunt
p5600
sVdata
p5601
(dp5602
Vinverter
p5603
I00
sVnRelaysOn
p5604
I0
sVprev
p5605
F26.27
sVcaps
p5606
F26.26
ssg4123
F22.932717
sVmillis
p5607
I433463
sg4125
g27
(S'\x07\xdc\x06\x11\x1531\x05on'
p5608
tp5609
Rp5610
sa(dp5611
Vmachine
p5612
Vshunt
p5613
sVdata
p5614
(dp5615
Vinverter
p5616
I00
sVnRelaysOn
p5617
I0
sVprev
p5618
F26.27
sVcaps
p5619
F26.28
ssg4123
F23.134527000000002
sVmillis
p5620
I433664
sg4125
g27
(S'\x07\xdc\x06\x11\x1531\x08\x83\xc0'
p5621
tp5622
Rp5623
sa(dp5624
Vmachine
p5625
Vshunt
p5626
sVdata
p5627
(dp5628
Vinverter
p5629
I00
sVnRelaysOn
p5630
I0
sVprev
p5631
F26.27
sVcaps
p5632
F26.29
ssg4123
F23.336791
sVmillis
p5633
I433866
sg4125
g27
(S'\x07\xdc\x06\x11\x1531\x0b\x99\xd8'
p5634
tp5635
Rp5636
sa(dp5637
Vmachine
p5638
Vshunt
p5639
sVdata
p5640
(dp5641
Vinverter
p5642
I00
sVnRelaysOn
p5643
I0
sVprev
p5644
F26.27
sVcaps
p5645
F26.3
ssg4123
F23.539693000000003
sVmillis
p5646
I434066
sg4125
g27
(S'\x07\xdc\x06\x11\x1531\x0e\xb2n'
p5647
tp5648
Rp5649
sa(dp5650
Vmachine
p5651
Vshunt
p5652
sVdata
p5653
(dp5654
Vinverter
p5655
I00
sVnRelaysOn
p5656
I0
sVprev
p5657
F26.27
sVcaps
p5658
F26.31
ssg4123
F23.741321000000003
sVmillis
p5659
I434268
sg4125
g27
(S'\x07\xdc\x06\x11\x1532\x02\x83\xca'
p5660
tp5661
Rp5662
sa(dp5663
Vmachine
p5664
Vshunt
p5665
sVdata
p5666
(dp5667
Vinverter
p5668
I00
sVnRelaysOn
p5669
I0
sVprev
p5670
F26.31
sVcaps
p5671
F26.32
ssg4123
F23.942421
sVmillis
p5672
I434469
sg4125
g27
(S'\x07\xdc\x06\x11\x1532\x05\x95V'
p5673
tp5674
Rp5675
sa(dp5676
Vmachine
p5677
Vshunt
p5678
sVdata
p5679
(dp5680
Vinverter
p5681
I00
sVnRelaysOn
p5682
I0
sVprev
p5683
F26.31
sVcaps
p5684
F26.32
ssg4123
F24.144251
sVmillis
p5685
I434669
sg4125
g27
(S'\x07\xdc\x06\x11\x1532\x08\xa9\xbc'
p5686
tp5687
Rp5688
sa(dp5689
Vmachine
p5690
Vshunt
p5691
sVdata
p5692
(dp5693
Vinverter
p5694
I00
sVnRelaysOn
p5695
I0
sVprev
p5696
F26.31
sVcaps
p5697
F26.34
ssg4123
F24.347233999999997
sVmillis
p5698
I434871
sg4125
g27
(S'\x07\xdc\x06\x11\x1532\x0b\xc2\xa3'
p5699
tp5700
Rp5701
sa(dp5702
Vmachine
p5703
Vshunt
p5704
sVdata
p5705
(dp5706
Vinverter
p5707
I00
sVnRelaysOn
p5708
I0
sVprev
p5709
F26.31
sVcaps
p5710
F26.36
ssg4123
F24.538177
sVmillis
p5711
I435072
sg4125
g27
(S'\x07\xdc\x06\x11\x1532\x0e\xac\x82'
p5712
tp5713
Rp5714
sa(dp5715
Vmachine
p5716
Vshunt
p5717
sVdata
p5718
(dp5719
Vinverter
p5720
I00
sVnRelaysOn
p5721
I0
sVprev
p5722
F26.31
sVcaps
p5723
F26.37
ssg4123
F24.741939
sVmillis
p5724
I435274
sg4125
g27
(S'\x07\xdc\x06\x11\x1533\x02\x864'
p5725
tp5726
Rp5727
sa(dp5728
Vmachine
p5729
Vshunt
p5730
sVdata
p5731
(dp5732
Vinverter
p5733
I00
sVnRelaysOn
p5734
I0
sVprev
p5735
F26.37
sVcaps
p5736
F26.37
ssg4123
F24.943895
sVmillis
p5737
I435475
sg4125
g27
(S'\x07\xdc\x06\x11\x1533\x05\x9b\x18'
p5738
tp5739
Rp5740
sa(dp5741
Vmachine
p5742
Vshunt
p5743
sVdata
p5744
(dp5745
Vinverter
p5746
I00
sVnRelaysOn
p5747
I0
sVprev
p5748
F26.37
sVcaps
p5749
F26.37
ssg4123
F25.145739000000003
sVmillis
p5750
I435676
sg4125
g27
(S'\x07\xdc\x06\x11\x1533\x08\xaf\x8c'
p5751
tp5752
Rp5753
sa(dp5754
Vmachine
p5755
Vshunt
p5756
sVdata
p5757
(dp5758
Vinverter
p5759
I00
sVnRelaysOn
p5760
I0
sVprev
p5761
F26.37
sVcaps
p5762
F26.38
ssg4123
F25.347607999999997
sVmillis
p5763
I435876
sg4125
g27
(S'\x07\xdc\x06\x11\x1533\x0b\xc4\x19'
p5764
tp5765
Rp5766
sa(dp5767
Vmachine
p5768
Vshunt
p5769
sVdata
p5770
(dp5771
Vinverter
p5772
I00
sVnRelaysOn
p5773
I0
sVprev
p5774
F26.37
sVcaps
p5775
F26.37
ssg4123
F25.549491
sVmillis
p5776
I436077
sg4125
g27
(S'\x07\xdc\x06\x11\x1533\x0e\xd8\xb4'
p5777
tp5778
Rp5779
sa(dp5780
Vmachine
p5781
Vshunt
p5782
sVdata
p5783
(dp5784
Vinverter
p5785
I00
sVnRelaysOn
p5786
I0
sVprev
p5787
F26.37
sVcaps
p5788
F26.41
ssg4123
F25.751450000000002
sVmillis
p5789
I436279
sg4125
g27
(S'\x07\xdc\x06\x11\x1534\x02\xab['
p5790
tp5791
Rp5792
sa(dp5793
Vmachine
p5794
Vshunt
p5795
sVdata
p5796
(dp5797
Vinverter
p5798
I00
sVnRelaysOn
p5799
I0
sVprev
p5800
F26.41
sVcaps
p5801
F26.42
ssg4123
F25.953385
sVmillis
p5802
I436480
sg4125
g27
(S'\x07\xdc\x06\x11\x1534\x05\xc0*'
p5803
tp5804
Rp5805
sa(dp5806
Vmachine
p5807
Vshunt
p5808
sVdata
p5809
(dp5810
Vinverter
p5811
I00
sVnRelaysOn
p5812
I0
sVprev
p5813
F26.41
sVcaps
p5814
F26.42
ssg4123
F26.155381000000002
sVmillis
p5815
I436682
sg4125
g27
(S'\x07\xdc\x06\x11\x1534\x08\xd56'
p5816
tp5817
Rp5818
sa(dp5819
Vmachine
p5820
Vshunt
p5821
sVdata
p5822
(dp5823
Vinverter
p5824
I00
sVnRelaysOn
p5825
I0
sVprev
p5826
F26.41
sVcaps
p5827
F26.43
ssg4123
F26.357177000000004
sVmillis
p5828
I436882
sg4125
g27
(S'\x07\xdc\x06\x11\x1534\x0b\xe9z'
p5829
tp5830
Rp5831
sa(dp5832
Vmachine
p5833
Vshunt
p5834
sVdata
p5835
(dp5836
Vinverter
p5837
I00
sVnRelaysOn
p5838
I0
sVprev
p5839
F26.41
sVcaps
p5840
F26.45
ssg4123
F26.559017
sVmillis
p5841
I437084
sg4125
g27
(S'\x07\xdc\x06\x11\x1534\x0e\xfd\xea'
p5842
tp5843
Rp5844
sa(dp5845
Vmachine
p5846
Vshunt
p5847
sVdata
p5848
(dp5849
Vinverter
p5850
I00
sVnRelaysOn
p5851
I0
sVprev
p5852
F26.41
sVcaps
p5853
F26.45
ssg4123
F26.761627999999998
sVmillis
p5854
I437284
sg4125
g27
(S'\x07\xdc\x06\x11\x1535\x02\xd3\x1d'
p5855
tp5856
Rp5857
sa(dp5858
Vmachine
p5859
Vshunt
p5860
sVdata
p5861
(dp5862
Vinverter
p5863
I00
sVnRelaysOn
p5864
I0
sVprev
p5865
F26.45
sVcaps
p5866
F26.44
ssg4123
F26.952479
sVmillis
p5867
I437485
sg4125
g27
(S'\x07\xdc\x06\x11\x1535\x05\xbc\xa0'
p5868
tp5869
Rp5870
sa(dp5871
Vmachine
p5872
Vshunt
p5873
sVdata
p5874
(dp5875
Vinverter
p5876
I00
sVnRelaysOn
p5877
I0
sVprev
p5878
F26.45
sVcaps
p5879
F26.44
ssg4123
F27.155105000000002
sVmillis
p5880
I437687
sg4125
g27
(S'\x07\xdc\x06\x11\x1535\x08\xd4"'
p5881
tp5882
Rp5883
sa(dp5884
Vmachine
p5885
Vshunt
p5886
sVdata
p5887
(dp5888
Vinverter
p5889
I00
sVnRelaysOn
p5890
I0
sVprev
p5891
F26.45
sVcaps
p5892
F26.45
ssg4123
F27.357642000000002
sVmillis
p5893
I437888
sg4125
g27
(S'\x07\xdc\x06\x11\x1535\x0b\xebK'
p5894
tp5895
Rp5896
sa(dp5897
Vmachine
p5898
Vshunt
p5899
sVdata
p5900
(dp5901
Vinverter
p5902
I00
sVnRelaysOn
p5903
I0
sVprev
p5904
F26.45
sVcaps
p5905
F26.46
ssg4123
F27.559758
sVmillis
p5906
I438090
sg4125
g27
(S'\x07\xdc\x06\x11\x1535\x0f\x00\xcf'
p5907
tp5908
Rp5909
sa(dp5910
Vmachine
p5911
Vshunt
p5912
sVdata
p5913
(dp5914
Vinverter
p5915
I00
sVnRelaysOn
p5916
I0
sVprev
p5917
F26.45
sVcaps
p5918
F26.46
ssg4123
F27.761321
sVmillis
p5919
I438290
sg4125
g27
(S'\x07\xdc\x06\x11\x1536\x02\xd1\xea'
p5920
tp5921
Rp5922
sa(dp5923
Vmachine
p5924
Vshunt
p5925
sVdata
p5926
(dp5927
Vinverter
p5928
I00
sVnRelaysOn
p5929
I0
sVprev
p5930
F26.46
sVcaps
p5931
F26.48
ssg4123
F27.962858
sVmillis
p5932
I438492
sg4125
g27
(S'\x07\xdc\x06\x11\x1536\x05\xe5+'
p5933
tp5934
Rp5935
sa(dp5936
Vmachine
p5937
Vshunt
p5938
sVdata
p5939
(dp5940
Vinverter
p5941
I00
sVnRelaysOn
p5942
I0
sVprev
p5943
F26.46
sVcaps
p5944
F26.48
ssg4123
F28.165029
sVmillis
p5945
I438692
sg4125
g27
(S'\x07\xdc\x06\x11\x1536\x08\xfa\xe6'
p5946
tp5947
Rp5948
saa(lp5949
(dp5950
Vmachine
p5951
Vshunt
p5952
sVdata
p5953
(dp5954
Vinverter
p5955
I00
sVnRelaysOn
p5956
I0
sVprev
p5957
F24.99
sVcaps
p5958
F25.03
ssS'offset'
p5959
F0.0
sVmillis
p5960
I506880
sS'timestamp'
p5961
g27
(S'\x07\xdc\x06\x11\x155\x02\x0b\xd6h'
p5962
tp5963
Rp5964
sa(dp5965
Vmachine
p5966
Vshunt
p5967
sVdata
p5968
(dp5969
Vinverter
p5970
I00
sVnRelaysOn
p5971
I0
sVprev
p5972
F24.99
sVcaps
p5973
F25.03
ssg5959
F0.20196499999999773
sVmillis
p5974
I507082
sg5961
g27
(S'\x07\xdc\x06\x11\x155\x02\x0e\xebU'
p5975
tp5976
Rp5977
sa(dp5978
Vmachine
p5979
Vshunt
p5980
sVdata
p5981
(dp5982
Vinverter
p5983
I00
sVnRelaysOn
p5984
I0
sVprev
p5985
F24.99
sVcaps
p5986
F25.08
ssg5959
F0.4038119999999985
sVmillis
p5987
I507282
sg5961
g27
(S'\x07\xdc\x06\x11\x155\x03\x02\xbd\x8c'
p5988
tp5989
Rp5990
sa(dp5991
Vmachine
p5992
Vshunt
p5993
sVdata
p5994
(dp5995
Vinverter
p5996
I00
sVnRelaysOn
p5997
I0
sVprev
p5998
F24.99
sVcaps
p5999
F25.1
ssg5959
F0.6057050000000004
sVmillis
p6000
I507484
sg5961
g27
(S'\x07\xdc\x06\x11\x155\x03\x05\xd21'
p6001
tp6002
Rp6003
sa(dp6004
Vmachine
p6005
Vshunt
p6006
sVdata
p6007
(dp6008
Vinverter
p6009
I00
sVnRelaysOn
p6010
I0
sVprev
p6011
F24.99
sVcaps
p6012
F25.11
ssg5959
F0.8075949999999992
sVmillis
p6013
I507684
sg5961
g27
(S'\x07\xdc\x06\x11\x155\x03\x08\xe6\xd3'
p6014
tp6015
Rp6016
sa(dp6017
Vmachine
p6018
Vshunt
p6019
sVdata
p6020
(dp6021
Vinverter
p6022
I00
sVnRelaysOn
p6023
I0
sVprev
p6024
F25.11
sVcaps
p6025
F25.13
ssg5959
F0.9992899999999985
sVmillis
p6026
I507885
sg5961
g27
(S'\x07\xdc\x06\x11\x155\x03\x0b\xd3\xa2'
p6027
tp6028
Rp6029
sa(dp6030
Vmachine
p6031
Vshunt
p6032
sVdata
p6033
(dp6034
Vinverter
p6035
I00
sVnRelaysOn
p6036
I0
sVprev
p6037
F25.11
sVcaps
p6038
F25.18
ssg5959
F1.2023189999999992
sVmillis
p6039
I508087
sg5961
g27
(S'\x07\xdc\x06\x11\x155\x03\x0e\xec\xb7'
p6040
tp6041
Rp6042
sa(dp6043
Vmachine
p6044
Vshunt
p6045
sVdata
p6046
(dp6047
Vinverter
p6048
I00
sVnRelaysOn
p6049
I0
sVprev
p6050
F25.11
sVcaps
p6051
F25.2
ssg5959
F1.4043910000000004
sVmillis
p6052
I508289
sg5961
g27
(S'\x07\xdc\x06\x11\x155\x04\x02\xbf\xcf'
p6053
tp6054
Rp6055
sa(dp6056
Vmachine
p6057
Vshunt
p6058
sVdata
p6059
(dp6060
Vinverter
p6061
I00
sVnRelaysOn
p6062
I0
sVprev
p6063
F25.11
sVcaps
p6064
F25.23
ssg5959
F1.6064100000000003
sVmillis
p6065
I508490
sg5961
g27
(S'\x07\xdc\x06\x11\x155\x04\x05\xd4\xf2'
p6066
tp6067
Rp6068
sa(dp6069
Vmachine
p6070
Vshunt
p6071
sVdata
p6072
(dp6073
Vinverter
p6074
I00
sVnRelaysOn
p6075
I0
sVprev
p6076
F25.11
sVcaps
p6077
F25.24
ssg5959
F1.8081029999999991
sVmillis
p6078
I508690
sg5961
g27
(S'\x07\xdc\x06\x11\x155\x04\x08\xe8\xcf'
p6079
tp6080
Rp6081
sa(dp6082
Vmachine
p6083
Vshunt
p6084
sVdata
p6085
(dp6086
Vinverter
p6087
I00
sVnRelaysOn
p6088
I0
sVprev
p6089
F25.24
sVcaps
p6090
F25.26
ssg5959
F2.010092
sVmillis
p6091
I508892
sg5961
g27
(S'\x07\xdc\x06\x11\x155\x04\x0b\xfd\xd4'
p6092
tp6093
Rp6094
sa(dp6095
Vmachine
p6096
Vshunt
p6097
sVdata
p6098
(dp6099
Vinverter
p6100
I00
sVnRelaysOn
p6101
I0
sVprev
p6102
F25.24
sVcaps
p6103
F25.26
ssg5959
F2.211943999999999
sVmillis
p6104
I509092
sg5961
g27
(S'\x07\xdc\x06\x11\x155\x04\x0f\x12P'
p6105
tp6106
Rp6107
sa(dp6108
Vmachine
p6109
Vshunt
p6110
sVdata
p6111
(dp6112
Vinverter
p6113
I00
sVnRelaysOn
p6114
I0
sVprev
p6115
F25.24
sVcaps
p6116
F25.27
ssg5959
F2.413799000000001
sVmillis
p6117
I509294
sg5961
g27
(S'\x07\xdc\x06\x11\x155\x05\x02\xe4\x8f'
p6118
tp6119
Rp6120
sa(dp6121
Vmachine
p6122
Vshunt
p6123
sVdata
p6124
(dp6125
Vinverter
p6126
I00
sVnRelaysOn
p6127
I0
sVprev
p6128
F25.24
sVcaps
p6129
F25.31
ssg5959
F2.6156749999999995
sVmillis
p6130
I509495
sg5961
g27
(S'\x07\xdc\x06\x11\x155\x05\x05\xf9#'
p6131
tp6132
Rp6133
sa(dp6134
Vmachine
p6135
Vshunt
p6136
sVdata
p6137
(dp6138
Vinverter
p6139
I00
sVnRelaysOn
p6140
I0
sVprev
p6141
F25.24
sVcaps
p6142
F25.32
ssg5959
F2.817650999999998
sVmillis
p6143
I509696
sg5961
g27
(S'\x07\xdc\x06\x11\x155\x05\t\x0e\x1b'
p6144
tp6145
Rp6146
sa(dp6147
Vmachine
p6148
Vshunt
p6149
sVdata
p6150
(dp6151
Vinverter
p6152
I00
sVnRelaysOn
p6153
I0
sVprev
p6154
F25.32
sVcaps
p6155
F25.33
ssg5959
F3.0197129999999994
sVmillis
p6156
I509898
sg5961
g27
(S'\x07\xdc\x06\x11\x155\x05\x0c#i'
p6157
tp6158
Rp6159
sa(dp6160
Vmachine
p6161
Vshunt
p6162
sVdata
p6163
(dp6164
Vinverter
p6165
I00
sVnRelaysOn
p6166
I0
sVprev
p6167
F25.32
sVcaps
p6168
F25.35
ssg5959
F3.2214509999999983
sVmillis
p6169
I510099
sg5961
g27
(S'\x07\xdc\x06\x11\x155\x05\x0f7s'
p6170
tp6171
Rp6172
sa(dp6173
Vmachine
p6174
Vshunt
p6175
sVdata
p6176
(dp6177
Vinverter
p6178
I00
sVnRelaysOn
p6179
I0
sVprev
p6180
F25.32
sVcaps
p6181
F25.36
ssg5959
F3.4133759999999995
sVmillis
p6182
I510300
sg5961
g27
(S'\x07\xdc\x06\x11\x155\x06\x02\xe2\xe8'
p6183
tp6184
Rp6185
sa(dp6186
Vmachine
p6187
Vshunt
p6188
sVdata
p6189
(dp6190
Vinverter
p6191
I00
sVnRelaysOn
p6192
I0
sVprev
p6193
F25.32
sVcaps
p6194
F25.38
ssg5959
F3.6164050000000003
sVmillis
p6195
I510500
sg5961
g27
(S'\x07\xdc\x06\x11\x155\x06\x05\xfb\xfd'
p6196
tp6197
Rp6198
sa(dp6199
Vmachine
p6200
Vshunt
p6201
sVdata
p6202
(dp6203
Vinverter
p6204
I00
sVnRelaysOn
p6205
I0
sVprev
p6206
F25.32
sVcaps
p6207
F25.4
ssg5959
F3.81822
sVmillis
p6208
I510702
sg5961
g27
(S'\x07\xdc\x06\x11\x155\x06\t\x10T'
p6209
tp6210
Rp6211
sa(dp6212
Vmachine
p6213
Vshunt
p6214
sVdata
p6215
(dp6216
Vinverter
p6217
I00
sVnRelaysOn
p6218
I0
sVprev
p6219
F25.4
sVcaps
p6220
F25.41
ssg5959
F4.020164999999999
sVmillis
p6221
I510903
sg5961
g27
(S'\x07\xdc\x06\x11\x155\x06\x0c%-'
p6222
tp6223
Rp6224
sa(dp6225
Vmachine
p6226
Vshunt
p6227
sVdata
p6228
(dp6229
Vinverter
p6230
I00
sVnRelaysOn
p6231
I0
sVprev
p6232
F25.4
sVcaps
p6233
F25.44
ssg5959
F4.222090999999999
sVmillis
p6234
I511105
sg5961
g27
(S'\x07\xdc\x06\x11\x155\x06\x0f9\xf3'
p6235
tp6236
Rp6237
sa(dp6238
Vmachine
p6239
Vshunt
p6240
sVdata
p6241
(dp6242
Vinverter
p6243
I00
sVnRelaysOn
p6244
I0
sVprev
p6245
F25.4
sVcaps
p6246
F25.46
ssg5959
F4.424111
sVmillis
p6247
I511306
sg5961
g27
(S'\x07\xdc\x06\x11\x155\x07\x03\x0c\xd7'
p6248
tp6249
Rp6250
sa(dp6251
Vmachine
p6252
Vshunt
p6253
sVdata
p6254
(dp6255
Vinverter
p6256
I00
sVnRelaysOn
p6257
I0
sVprev
p6258
F25.4
sVcaps
p6259
F25.45
ssg5959
F4.625937999999998
sVmillis
p6260
I511506
sg5961
g27
(S'\x07\xdc\x06\x11\x155\x07\x06!:'
p6261
tp6262
Rp6263
sa(dp6264
Vmachine
p6265
Vshunt
p6266
sVdata
p6267
(dp6268
Vinverter
p6269
I00
sVnRelaysOn
p6270
I0
sVprev
p6271
F25.4
sVcaps
p6272
F25.48
ssg5959
F4.826815
sVmillis
p6273
I511708
sg5961
g27
(S'\x07\xdc\x06\x11\x155\x07\t1\xe7'
p6274
tp6275
Rp6276
sa(dp6277
Vmachine
p6278
Vshunt
p6279
sVdata
p6280
(dp6281
Vinverter
p6282
I00
sVnRelaysOn
p6283
I0
sVprev
p6284
F25.48
sVcaps
p6285
F25.49
ssg5959
F5.028784999999999
sVmillis
p6286
I511909
sg5961
g27
(S'\x07\xdc\x06\x11\x155\x07\x0cF\xd9'
p6287
tp6288
Rp6289
sa(dp6290
Vmachine
p6291
Vshunt
p6292
sVdata
p6293
(dp6294
Vinverter
p6295
I00
sVnRelaysOn
p6296
I0
sVprev
p6297
F25.48
sVcaps
p6298
F25.53
ssg5959
F5.230682999999999
sVmillis
p6299
I512109
sg5961
g27
(S'\x07\xdc\x06\x11\x155\x08\x00\x19C'
p6300
tp6301
Rp6302
sa(dp6303
Vmachine
p6304
Vshunt
p6305
sVdata
p6306
(dp6307
Vinverter
p6308
I00
sVnRelaysOn
p6309
I0
sVprev
p6310
F25.48
sVcaps
p6311
F25.53
ssg5959
F5.432469999999999
sVmillis
p6312
I512311
sg5961
g27
(S'\x07\xdc\x06\x11\x155\x08\x03-~'
p6313
tp6314
Rp6315
sa(dp6316
Vmachine
p6317
Vshunt
p6318
sVdata
p6319
(dp6320
Vinverter
p6321
I00
sVnRelaysOn
p6322
I0
sVprev
p6323
F25.48
sVcaps
p6324
F25.55
ssg5959
F5.634340999999999
sVmillis
p6325
I512513
sg5961
g27
(S'\x07\xdc\x06\x11\x155\x08\x06B\r'
p6326
tp6327
Rp6328
sa(dp6329
Vmachine
p6330
Vshunt
p6331
sVdata
p6332
(dp6333
Vinverter
p6334
I00
sVnRelaysOn
p6335
I0
sVprev
p6336
F25.48
sVcaps
p6337
F25.56
ssg5959
F5.836369999999999
sVmillis
p6338
I512714
sg5961
g27
(S'\x07\xdc\x06\x11\x155\x08\tW:'
p6339
tp6340
Rp6341
sa(dp6342
Vmachine
p6343
Vshunt
p6344
sVdata
p6345
(dp6346
Vinverter
p6347
I00
sVnRelaysOn
p6348
I0
sVprev
p6349
F25.56
sVcaps
p6350
F25.59
ssg5959
F6.028234000000001
sVmillis
p6351
I512914
sg5961
g27
(S'\x07\xdc\x06\x11\x155\x08\x0cD\xb2'
p6352
tp6353
Rp6354
sa(dp6355
Vmachine
p6356
Vshunt
p6357
sVdata
p6358
(dp6359
Vinverter
p6360
I00
sVnRelaysOn
p6361
I0
sVprev
p6362
F25.56
sVcaps
p6363
F25.58
ssg5959
F6.230256000000001
sVmillis
p6364
I513116
sg5961
g27
(S'\x07\xdc\x06\x11\x155\t\x00\x17\x98'
p6365
tp6366
Rp6367
sa(dp6368
Vmachine
p6369
Vshunt
p6370
sVdata
p6371
(dp6372
Vinverter
p6373
I00
sVnRelaysOn
p6374
I0
sVprev
p6375
F25.56
sVcaps
p6376
F25.61
ssg5959
F6.432109999999998
sVmillis
p6377
I513316
sg5961
g27
(S'\x07\xdc\x06\x11\x155\t\x03,\x16'
p6378
tp6379
Rp6380
sa(dp6381
Vmachine
p6382
Vshunt
p6383
sVdata
p6384
(dp6385
Vinverter
p6386
I00
sVnRelaysOn
p6387
I0
sVprev
p6388
F25.56
sVcaps
p6389
F25.62
ssg5959
F6.634070999999999
sVmillis
p6390
I513517
sg5961
g27
(S'\x07\xdc\x06\x11\x155\t\x06@\xff'
p6391
tp6392
Rp6393
sa(dp6394
Vmachine
p6395
Vshunt
p6396
sVdata
p6397
(dp6398
Vinverter
p6399
I00
sVnRelaysOn
p6400
I0
sVprev
p6401
F25.56
sVcaps
p6402
F25.67
ssg5959
F6.835847000000001
sVmillis
p6403
I513719
sg5961
g27
(S'\x07\xdc\x06\x11\x155\t\tU/'
p6404
tp6405
Rp6406
sa(dp6407
Vmachine
p6408
Vshunt
p6409
sVdata
p6410
(dp6411
Vinverter
p6412
I00
sVnRelaysOn
p6413
I0
sVprev
p6414
F25.67
sVcaps
p6415
F25.68
ssg5959
F7.0379000000000005
sVmillis
p6416
I513921
sg5961
g27
(S'\x07\xdc\x06\x11\x155\t\x0cjt'
p6417
tp6418
Rp6419
sa(dp6420
Vmachine
p6421
Vshunt
p6422
sVdata
p6423
(dp6424
Vinverter
p6425
I00
sVnRelaysOn
p6426
I0
sVprev
p6427
F25.67
sVcaps
p6428
F25.71
ssg5959
F7.239920999999999
sVmillis
p6429
I514122
sg5961
g27
(S'\x07\xdc\x06\x11\x155\n\x00=Y'
p6430
tp6431
Rp6432
sa(dp6433
Vmachine
p6434
Vshunt
p6435
sVdata
p6436
(dp6437
Vinverter
p6438
I00
sVnRelaysOn
p6439
I0
sVprev
p6440
F25.67
sVcaps
p6441
F25.74
ssg5959
F7.441737
sVmillis
p6442
I514322
sg5961
g27
(S'\x07\xdc\x06\x11\x155\n\x03Q\xb1'
p6443
tp6444
Rp6445
sa(dp6446
Vmachine
p6447
Vshunt
p6448
sVdata
p6449
(dp6450
Vinverter
p6451
I00
sVnRelaysOn
p6452
I0
sVprev
p6453
F25.67
sVcaps
p6454
F25.76
ssg5959
F7.643749
sVmillis
p6455
I514524
sg5961
g27
(S'\x07\xdc\x06\x11\x155\n\x06f\xcd'
p6456
tp6457
Rp6458
sa(dp6459
Vmachine
p6460
Vshunt
p6461
sVdata
p6462
(dp6463
Vinverter
p6464
I00
sVnRelaysOn
p6465
I0
sVprev
p6466
F25.67
sVcaps
p6467
F25.78
ssg5959
F7.845510999999998
sVmillis
p6468
I514724
sg5961
g27
(S'\x07\xdc\x06\x11\x155\n\tz\xef'
p6469
tp6470
Rp6471
sa(dp6472
Vmachine
p6473
Vshunt
p6474
sVdata
p6475
(dp6476
Vinverter
p6477
I00
sVnRelaysOn
p6478
I0
sVprev
p6479
F25.78
sVcaps
p6480
F25.79
ssg5959
F8.047273999999998
sVmillis
p6481
I514926
sg5961
g27
(S'\x07\xdc\x06\x11\x155\n\x0c\x8f\x12'
p6482
tp6483
Rp6484
sa(dp6485
Vmachine
p6486
Vshunt
p6487
sVdata
p6488
(dp6489
Vinverter
p6490
I00
sVnRelaysOn
p6491
I0
sVprev
p6492
F25.78
sVcaps
p6493
F25.8
ssg5959
F8.249292999999998
sVmillis
p6494
I515127
sg5961
g27
(S'\x07\xdc\x06\x11\x155\x0b\x00a\xf5'
p6495
tp6496
Rp6497
sa(dp6498
Vmachine
p6499
Vshunt
p6500
sVdata
p6501
(dp6502
Vinverter
p6503
I00
sVnRelaysOn
p6504
I0
sVprev
p6505
F25.78
sVcaps
p6506
F25.8
ssg5959
F8.441192000000001
sVmillis
p6507
I515328
sg5961
g27
(S'\x07\xdc\x06\x11\x155\x0b\x03O\x90'
p6508
tp6509
Rp6510
sa(dp6511
Vmachine
p6512
Vshunt
p6513
sVdata
p6514
(dp6515
Vinverter
p6516
I00
sVnRelaysOn
p6517
I0
sVprev
p6518
F25.78
sVcaps
p6519
F25.83
ssg5959
F8.644237999999998
sVmillis
p6520
I515530
sg5961
g27
(S'\x07\xdc\x06\x11\x155\x0b\x06h\xb6'
p6521
tp6522
Rp6523
sa(dp6524
Vmachine
p6525
Vshunt
p6526
sVdata
p6527
(dp6528
Vinverter
p6529
I00
sVnRelaysOn
p6530
I0
sVprev
p6531
F25.78
sVcaps
p6532
F25.83
ssg5959
F8.846007
sVmillis
p6533
I515730
sg5961
g27
(S'\x07\xdc\x06\x11\x155\x0b\t|\xdf'
p6534
tp6535
Rp6536
sa(dp6537
Vmachine
p6538
Vshunt
p6539
sVdata
p6540
(dp6541
Vinverter
p6542
I00
sVnRelaysOn
p6543
I0
sVprev
p6544
F25.83
sVcaps
p6545
F25.87
ssg5959
F9.048009999999998
sVmillis
p6546
I515932
sg5961
g27
(S'\x07\xdc\x06\x11\x155\x0b\x0c\x91\xf2'
p6547
tp6548
Rp6549
sa(dp6550
Vmachine
p6551
Vshunt
p6552
sVdata
p6553
(dp6554
Vinverter
p6555
I00
sVnRelaysOn
p6556
I0
sVprev
p6557
F25.83
sVcaps
p6558
F25.86
ssg5959
F9.249883
sVmillis
p6559
I516132
sg5961
g27
(S'\x07\xdc\x06\x11\x155\x0c\x00dC'
p6560
tp6561
Rp6562
sa(dp6563
Vmachine
p6564
Vshunt
p6565
sVdata
p6566
(dp6567
Vinverter
p6568
I00
sVnRelaysOn
p6569
I0
sVprev
p6570
F25.83
sVcaps
p6571
F25.88
ssg5959
F9.451781
sVmillis
p6572
I516333
sg5961
g27
(S'\x07\xdc\x06\x11\x155\x0c\x03x\xed'
p6573
tp6574
Rp6575
sa(dp6576
Vmachine
p6577
Vshunt
p6578
sVdata
p6579
(dp6580
Vinverter
p6581
I00
sVnRelaysOn
p6582
I0
sVprev
p6583
F25.83
sVcaps
p6584
F25.89
ssg5959
F9.653856999999999
sVmillis
p6585
I516535
sg5961
g27
(S'\x07\xdc\x06\x11\x155\x0c\x06\x8eI'
p6586
tp6587
Rp6588
sa(dp6589
Vmachine
p6590
Vshunt
p6591
sVdata
p6592
(dp6593
Vinverter
p6594
I00
sVnRelaysOn
p6595
I0
sVprev
p6596
F25.83
sVcaps
p6597
F25.91
ssg5959
F9.855561999999999
sVmillis
p6598
I516736
sg5961
g27
(S'\x07\xdc\x06\x11\x155\x0c\t\xa22'
p6599
tp6600
Rp6601
sa(dp6602
Vmachine
p6603
Vshunt
p6604
sVdata
p6605
(dp6606
Vinverter
p6607
I00
sVnRelaysOn
p6608
I0
sVprev
p6609
F25.91
sVcaps
p6610
F25.92
ssg5959
F10.057607999999998
sVmillis
p6611
I516938
sg5961
g27
(S'\x07\xdc\x06\x11\x155\x0c\x0c\xb7p'
p6612
tp6613
Rp6614
sa(dp6615
Vmachine
p6616
Vshunt
p6617
sVdata
p6618
(dp6619
Vinverter
p6620
I00
sVnRelaysOn
p6621
I0
sVprev
p6622
F25.91
sVcaps
p6623
F25.94
ssg5959
F10.259349
sVmillis
p6624
I517138
sg5961
g27
(S'\x07\xdc\x06\x11\x155\r\x00\x89='
p6625
tp6626
Rp6627
sa(dp6628
Vmachine
p6629
Vshunt
p6630
sVdata
p6631
(dp6632
Vinverter
p6633
I00
sVnRelaysOn
p6634
I0
sVprev
p6635
F25.91
sVcaps
p6636
F25.94
ssg5959
F10.461337999999998
sVmillis
p6637
I517340
sg5961
g27
(S'\x07\xdc\x06\x11\x155\r\x03\x9eB'
p6638
tp6639
Rp6640
sa(dp6641
Vmachine
p6642
Vshunt
p6643
sVdata
p6644
(dp6645
Vinverter
p6646
I00
sVnRelaysOn
p6647
I0
sVprev
p6648
F25.91
sVcaps
p6649
F25.97
ssg5959
F10.663225999999998
sVmillis
p6650
I517540
sg5961
g27
(S'\x07\xdc\x06\x11\x155\r\x06\xb2\xe2'
p6651
tp6652
Rp6653
sa(dp6654
Vmachine
p6655
Vshunt
p6656
sVdata
p6657
(dp6658
Vinverter
p6659
I00
sVnRelaysOn
p6660
I0
sVprev
p6661
F25.91
sVcaps
p6662
F25.98
ssg5959
F10.854983999999998
sVmillis
p6663
I517741
sg5961
g27
(S'\x07\xdc\x06\x11\x155\r\t\x9f\xf0'
p6664
tp6665
Rp6666
sa(dp6667
Vmachine
p6668
Vshunt
p6669
sVdata
p6670
(dp6671
Vinverter
p6672
I00
sVnRelaysOn
p6673
I0
sVprev
p6674
F25.98
sVcaps
p6675
F25.98
ssg5959
F11.058007
sVmillis
p6676
I517943
sg5961
g27
(S'\x07\xdc\x06\x11\x155\r\x0c\xb8\xff'
p6677
tp6678
Rp6679
sa(dp6680
Vmachine
p6681
Vshunt
p6682
sVdata
p6683
(dp6684
Vinverter
p6685
I00
sVnRelaysOn
p6686
I0
sVprev
p6687
F25.98
sVcaps
p6688
F26.0
ssg5959
F11.259902
sVmillis
p6689
I518144
sg5961
g27
(S'\x07\xdc\x06\x11\x155\x0e\x00\x8bf'
p6690
tp6691
Rp6692
sa(dp6693
Vmachine
p6694
Vshunt
p6695
sVdata
p6696
(dp6697
Vinverter
p6698
I00
sVnRelaysOn
p6699
I0
sVprev
p6700
F25.98
sVcaps
p6701
F26.02
ssg5959
F11.461973
sVmillis
p6702
I518346
sg5961
g27
(S'\x07\xdc\x06\x11\x155\x0e\x03\xa0\xbd'
p6703
tp6704
Rp6705
sa(dp6706
Vmachine
p6707
Vshunt
p6708
sVdata
p6709
(dp6710
Vinverter
p6711
I00
sVnRelaysOn
p6712
I0
sVprev
p6713
F25.98
sVcaps
p6714
F26.04
ssg5959
F11.663916999999998
sVmillis
p6715
I518546
sg5961
g27
(S'\x07\xdc\x06\x11\x155\x0e\x06\xb5\x95'
p6716
tp6717
Rp6718
sa(dp6719
Vmachine
p6720
Vshunt
p6721
sVdata
p6722
(dp6723
Vinverter
p6724
I00
sVnRelaysOn
p6725
I0
sVprev
p6726
F25.98
sVcaps
p6727
F26.05
ssg5959
F11.865717
sVmillis
p6728
I518748
sg5961
g27
(S'\x07\xdc\x06\x11\x155\x0e\t\xc9\xdd'
p6729
tp6730
Rp6731
sa(dp6732
Vmachine
p6733
Vshunt
p6734
sVdata
p6735
(dp6736
Vinverter
p6737
I00
sVnRelaysOn
p6738
I0
sVprev
p6739
F26.05
sVcaps
p6740
F26.06
ssg5959
F12.067625
sVmillis
p6741
I518948
sg5961
g27
(S'\x07\xdc\x06\x11\x155\x0e\x0c\xde\x91'
p6742
tp6743
Rp6744
sa(dp6745
Vmachine
p6746
Vshunt
p6747
sVdata
p6748
(dp6749
Vinverter
p6750
I00
sVnRelaysOn
p6751
I0
sVprev
p6752
F26.05
sVcaps
p6753
F26.07
ssg5959
F12.269521000000001
sVmillis
p6754
I519149
sg5961
g27
(S'\x07\xdc\x06\x11\x155\x0f\x00\xb0\xf9'
p6755
tp6756
Rp6757
sa(dp6758
Vmachine
p6759
Vshunt
p6760
sVdata
p6761
(dp6762
Vinverter
p6763
I00
sVnRelaysOn
p6764
I0
sVprev
p6765
F26.05
sVcaps
p6766
F26.09
ssg5959
F12.471401
sVmillis
p6767
I519351
sg5961
g27
(S'\x07\xdc\x06\x11\x155\x0f\x03\xc5\x91'
p6768
tp6769
Rp6770
sa(dp6771
Vmachine
p6772
Vshunt
p6773
sVdata
p6774
(dp6775
Vinverter
p6776
I00
sVnRelaysOn
p6777
I0
sVprev
p6778
F26.05
sVcaps
p6779
F26.1
ssg5959
F12.673299
sVmillis
p6780
I519553
sg5961
g27
(S'\x07\xdc\x06\x11\x155\x0f\x06\xda;'
p6781
tp6782
Rp6783
sa(dp6784
Vmachine
p6785
Vshunt
p6786
sVdata
p6787
(dp6788
Vinverter
p6789
I00
sVnRelaysOn
p6790
I0
sVprev
p6791
F26.05
sVcaps
p6792
F26.13
ssg5959
F12.874313999999998
sVmillis
p6793
I519754
sg5961
g27
(S'\x07\xdc\x06\x11\x155\x0f\t\xebr'
p6794
tp6795
Rp6796
sa(dp6797
Vmachine
p6798
Vshunt
p6799
sVdata
p6800
(dp6801
Vinverter
p6802
I00
sVnRelaysOn
p6803
I0
sVprev
p6804
F26.13
sVcaps
p6805
F26.14
ssg5959
F13.076128
sVmillis
p6806
I519954
sg5961
g27
(S'\x07\xdc\x06\x11\x155\x0f\x0c\xff\xc8'
p6807
tp6808
Rp6809
sa(dp6810
Vmachine
p6811
Vshunt
p6812
sVdata
p6813
(dp6814
Vinverter
p6815
I00
sVnRelaysOn
p6816
I0
sVprev
p6817
F26.13
sVcaps
p6818
F26.17
ssg5959
F13.278019999999998
sVmillis
p6819
I520156
sg5961
g27
(S'\x07\xdc\x06\x11\x155\x10\x00\xd2,'
p6820
tp6821
Rp6822
sa(dp6823
Vmachine
p6824
Vshunt
p6825
sVdata
p6826
(dp6827
Vinverter
p6828
I00
sVnRelaysOn
p6829
I0
sVprev
p6830
F26.13
sVcaps
p6831
F26.18
ssg5959
F13.469971999999999
sVmillis
p6832
I520356
sg5961
g27
(S'\x07\xdc\x06\x11\x155\x10\x03\xbf\xfc'
p6833
tp6834
Rp6835
sa(dp6836
Vmachine
p6837
Vshunt
p6838
sVdata
p6839
(dp6840
Vinverter
p6841
I00
sVnRelaysOn
p6842
I0
sVprev
p6843
F26.13
sVcaps
p6844
F26.16
ssg5959
F13.672861000000001
sVmillis
p6845
I520558
sg5961
g27
(S'\x07\xdc\x06\x11\x155\x10\x06\xd8\x85'
p6846
tp6847
Rp6848
sa(dp6849
Vmachine
p6850
Vshunt
p6851
sVdata
p6852
(dp6853
Vinverter
p6854
I00
sVnRelaysOn
p6855
I0
sVprev
p6856
F26.13
sVcaps
p6857
F26.17
ssg5959
F13.874752999999998
sVmillis
p6858
I520759
sg5961
g27
(S'\x07\xdc\x06\x11\x155\x10\t\xed)'
p6859
tp6860
Rp6861
sa(dp6862
Vmachine
p6863
Vshunt
p6864
sVdata
p6865
(dp6866
Vinverter
p6867
I00
sVnRelaysOn
p6868
I0
sVprev
p6869
F26.17
sVcaps
p6870
F26.2
ssg5959
F14.076674
sVmillis
p6871
I520960
sg5961
g27
(S'\x07\xdc\x06\x11\x155\x10\r\x01\xea'
p6872
tp6873
Rp6874
sa(dp6875
Vmachine
p6876
Vshunt
p6877
sVdata
p6878
(dp6879
Vinverter
p6880
I00
sVnRelaysOn
p6881
I0
sVprev
p6882
F26.17
sVcaps
p6883
F26.23
ssg5959
F14.278723
sVmillis
p6884
I521162
sg5961
g27
(S'\x07\xdc\x06\x11\x155\x11\x00\xd4\xeb'
p6885
tp6886
Rp6887
sa(dp6888
Vmachine
p6889
Vshunt
p6890
sVdata
p6891
(dp6892
Vinverter
p6893
I00
sVnRelaysOn
p6894
I0
sVprev
p6895
F26.17
sVcaps
p6896
F26.25
ssg5959
F14.480529
sVmillis
p6897
I521362
sg5961
g27
(S'\x07\xdc\x06\x11\x155\x11\x03\xe99'
p6898
tp6899
Rp6900
sa(dp6901
Vmachine
p6902
Vshunt
p6903
sVdata
p6904
(dp6905
Vinverter
p6906
I00
sVnRelaysOn
p6907
I0
sVprev
p6908
F26.17
sVcaps
p6909
F26.25
ssg5959
F14.682431000000001
sVmillis
p6910
I521564
sg5961
g27
(S'\x07\xdc\x06\x11\x155\x11\x06\xfd\xe7'
p6911
tp6912
Rp6913
sa(dp6914
Vmachine
p6915
Vshunt
p6916
sVdata
p6917
(dp6918
Vinverter
p6919
I00
sVnRelaysOn
p6920
I0
sVprev
p6921
F26.17
sVcaps
p6922
F26.27
ssg5959
F14.884335
sVmillis
p6923
I521765
sg5961
g27
(S'\x07\xdc\x06\x11\x155\x11\n\x12\x97'
p6924
tp6925
Rp6926
sa(dp6927
Vmachine
p6928
Vshunt
p6929
sVdata
p6930
(dp6931
Vinverter
p6932
I00
sVnRelaysOn
p6933
I0
sVprev
p6934
F26.27
sVcaps
p6935
F26.27
ssg5959
F15.086181
sVmillis
p6936
I521965
sg5961
g27
(S"\x07\xdc\x06\x11\x155\x11\r'\r"
p6937
tp6938
Rp6939
sa(dp6940
Vmachine
p6941
Vshunt
p6942
sVdata
p6943
(dp6944
Vinverter
p6945
I00
sVnRelaysOn
p6946
I0
sVprev
p6947
F26.27
sVcaps
p6948
F26.29
ssg5959
F15.288076
sVmillis
p6949
I522167
sg5961
g27
(S'\x07\xdc\x06\x11\x155\x12\x00\xf9t'
p6950
tp6951
Rp6952
sa(dp6953
Vmachine
p6954
Vshunt
p6955
sVdata
p6956
(dp6957
Vinverter
p6958
I00
sVnRelaysOn
p6959
I0
sVprev
p6960
F26.27
sVcaps
p6961
F26.3
ssg5959
F15.489714000000003
sVmillis
p6962
I522368
sg5961
g27
(S'\x07\xdc\x06\x11\x155\x12\x04\r\x1a'
p6963
tp6964
Rp6965
sa(dp6966
Vmachine
p6967
Vshunt
p6968
sVdata
p6969
(dp6970
Vinverter
p6971
I00
sVnRelaysOn
p6972
I0
sVprev
p6973
F26.27
sVcaps
p6974
F26.31
ssg5959
F15.692105999999999
sVmillis
p6975
I522570
sg5961
g27
(S'\x07\xdc\x06\x11\x155\x12\x07#\xb2'
p6976
tp6977
Rp6978
sa(dp6979
Vmachine
p6980
Vshunt
p6981
sVdata
p6982
(dp6983
Vinverter
p6984
I00
sVnRelaysOn
p6985
I0
sVprev
p6986
F26.27
sVcaps
p6987
F26.3
ssg5959
F15.884894999999997
sVmillis
p6988
I522770
sg5961
g27
(S'\x07\xdc\x06\x11\x155\x12\n\x14\xc7'
p6989
tp6990
Rp6991
sa(dp6992
Vmachine
p6993
Vshunt
p6994
sVdata
p6995
(dp6996
Vinverter
p6997
I00
sVnRelaysOn
p6998
I0
sVprev
p6999
F26.3
sVcaps
p7000
F26.32
ssg5959
F16.086766
sVmillis
p7001
I522972
sg5961
g27
(S'\x07\xdc\x06\x11\x155\x12\r)V'
p7002
tp7003
Rp7004
sa(dp7005
Vmachine
p7006
Vshunt
p7007
sVdata
p7008
(dp7009
Vinverter
p7010
I00
sVnRelaysOn
p7011
I0
sVprev
p7012
F26.3
sVcaps
p7013
F26.32
ssg5959
F16.288721999999996
sVmillis
p7014
I523173
sg5961
g27
(S'\x07\xdc\x06\x11\x155\x13\x00\xfb\xfa'
p7015
tp7016
Rp7017
sa(dp7018
Vmachine
p7019
Vshunt
p7020
sVdata
p7021
(dp7022
Vinverter
p7023
I00
sVnRelaysOn
p7024
I0
sVprev
p7025
F26.3
sVcaps
p7026
F26.35
ssg5959
F16.490588
sVmillis
p7027
I523373
sg5961
g27
(S'\x07\xdc\x06\x11\x155\x13\x04\x10\x84'
p7028
tp7029
Rp7030
sa(dp7031
Vmachine
p7032
Vshunt
p7033
sVdata
p7034
(dp7035
Vinverter
p7036
I00
sVnRelaysOn
p7037
I0
sVprev
p7038
F26.3
sVcaps
p7039
F26.36
ssg5959
F16.692662000000002
sVmillis
p7040
I523575
sg5961
g27
(S'\x07\xdc\x06\x11\x155\x13\x07%\xde'
p7041
tp7042
Rp7043
sa(dp7044
Vmachine
p7045
Vshunt
p7046
sVdata
p7047
(dp7048
Vinverter
p7049
I00
sVnRelaysOn
p7050
I0
sVprev
p7051
F26.3
sVcaps
p7052
F26.36
ssg5959
F16.894398999999996
sVmillis
p7053
I523776
sg5961
g27
(S'\x07\xdc\x06\x11\x155\x13\n9\xe7'
p7054
tp7055
Rp7056
sa(dp7057
Vmachine
p7058
Vshunt
p7059
sVdata
p7060
(dp7061
Vinverter
p7062
I00
sVnRelaysOn
p7063
I0
sVprev
p7064
F26.36
sVcaps
p7065
F26.37
ssg5959
F17.096410000000002
sVmillis
p7066
I523978
sg5961
g27
(S'\x07\xdc\x06\x11\x155\x13\rO\x02'
p7067
tp7068
Rp7069
sa(dp7070
Vmachine
p7071
Vshunt
p7072
sVdata
p7073
(dp7074
Vinverter
p7075
I00
sVnRelaysOn
p7076
I0
sVprev
p7077
F26.36
sVcaps
p7078
F26.38
ssg5959
F17.298177
sVmillis
p7079
I524178
sg5961
g27
(S'\x07\xdc\x06\x11\x155\x14\x01 \xe9'
p7080
tp7081
Rp7082
sa(dp7083
Vmachine
p7084
Vshunt
p7085
sVdata
p7086
(dp7087
Vinverter
p7088
I00
sVnRelaysOn
p7089
I0
sVprev
p7090
F26.36
sVcaps
p7091
F26.38
ssg5959
F17.499264
sVmillis
p7092
I524380
sg5961
g27
(S'\x07\xdc\x06\x11\x155\x14\x042h'
p7093
tp7094
Rp7095
sa(dp7096
Vmachine
p7097
Vshunt
p7098
sVdata
p7099
(dp7100
Vinverter
p7101
I00
sVnRelaysOn
p7102
I0
sVprev
p7103
F26.36
sVcaps
p7104
F26.4
ssg5959
F17.700756000000002
sVmillis
p7105
I524580
sg5961
g27
(S'\x07\xdc\x06\x11\x155\x14\x07E|'
p7106
tp7107
Rp7108
sa(dp7109
Vmachine
p7110
Vshunt
p7111
sVdata
p7112
(dp7113
Vinverter
p7114
I00
sVnRelaysOn
p7115
I0
sVprev
p7116
F26.36
sVcaps
p7117
F26.41
ssg5959
F17.904346999999998
sVmillis
p7118
I524781
sg5961
g27
(S'\x07\xdc\x06\x11\x155\x14\n`\xc3'
p7119
tp7120
Rp7121
sa(dp7122
Vmachine
p7123
Vshunt
p7124
sVdata
p7125
(dp7126
Vinverter
p7127
I00
sVnRelaysOn
p7128
I0
sVprev
p7129
F26.41
sVcaps
p7130
F26.43
ssg5959
F18.105759000000003
sVmillis
p7131
I524983
sg5961
g27
(S'\x07\xdc\x06\x11\x155\x14\rs\x87'
p7132
tp7133
Rp7134
sa(dp7135
Vmachine
p7136
Vshunt
p7137
sVdata
p7138
(dp7139
Vinverter
p7140
I00
sVnRelaysOn
p7141
I0
sVprev
p7142
F26.41
sVcaps
p7143
F26.44
ssg5959
F18.297786999999996
sVmillis
p7144
I525184
sg5961
g27
(S'\x07\xdc\x06\x11\x155\x15\x01\x1fc'
p7145
tp7146
Rp7147
sa(dp7148
Vmachine
p7149
Vshunt
p7150
sVdata
p7151
(dp7152
Vinverter
p7153
I00
sVnRelaysOn
p7154
I0
sVprev
p7155
F26.41
sVcaps
p7156
F26.45
ssg5959
F18.500739999999997
sVmillis
p7157
I525386
sg5961
g27
(S'\x07\xdc\x06\x11\x155\x15\x048,'
p7158
tp7159
Rp7160
sa(dp7161
Vmachine
p7162
Vshunt
p7163
sVdata
p7164
(dp7165
Vinverter
p7166
I00
sVnRelaysOn
p7167
I0
sVprev
p7168
F26.41
sVcaps
p7169
F26.47
ssg5959
F18.702626
sVmillis
p7170
I525586
sg5961
g27
(S'\x07\xdc\x06\x11\x155\x15\x07L\xca'
p7171
tp7172
Rp7173
sa(dp7174
Vmachine
p7175
Vshunt
p7176
sVdata
p7177
(dp7178
Vinverter
p7179
I00
sVnRelaysOn
p7180
I0
sVprev
p7181
F26.41
sVcaps
p7182
F26.47
ssg5959
F18.904507999999996
sVmillis
p7183
I525788
sg5961
g27
(S'\x07\xdc\x06\x11\x155\x15\nad'
p7184
tp7185
Rp7186
sa(dp7187
Vmachine
p7188
Vshunt
p7189
sVdata
p7190
(dp7191
Vinverter
p7192
I00
sVnRelaysOn
p7193
I0
sVprev
p7194
F26.47
sVcaps
p7195
F26.48
ssg5959
F19.106422999999996
sVmillis
p7196
I525988
sg5961
g27
(S'\x07\xdc\x06\x11\x155\x15\rv\x1f'
p7197
tp7198
Rp7199
sa(dp7200
Vmachine
p7201
Vshunt
p7202
sVdata
p7203
(dp7204
Vinverter
p7205
I00
sVnRelaysOn
p7206
I0
sVprev
p7207
F26.47
sVcaps
p7208
F26.49
ssg5959
F19.308289999999996
sVmillis
p7209
I526189
sg5961
g27
(S'\x07\xdc\x06\x11\x155\x16\x01Hj'
p7210
tp7211
Rp7212
saa(lp7213
(dp7214
Vmachine
p7215
Vshunt
p7216
sVdata
p7217
(dp7218
Vinverter
p7219
I00
sVnRelaysOn
p7220
I0
sVprev
p7221
F24.89
sVcaps
p7222
F25.01
ssS'offset'
p7223
F0.0
sVmillis
p7224
I566620
sS'timestamp'
p7225
g27
(S'\x07\xdc\x06\x11\x156\x02\x07\xd1\x9d'
p7226
tp7227
Rp7228
sa(dp7229
Vmachine
p7230
Vshunt
p7231
sVdata
p7232
(dp7233
Vinverter
p7234
I00
sVnRelaysOn
p7235
I0
sVprev
p7236
F24.89
sVcaps
p7237
F25.03
ssg7223
F0.20193800000000017
sVmillis
p7238
I566820
sg7225
g27
(S'\x07\xdc\x06\x11\x156\x02\n\xe6o'
p7239
tp7240
Rp7241
sa(dp7242
Vmachine
p7243
Vshunt
p7244
sVdata
p7245
(dp7246
Vinverter
p7247
I00
sVnRelaysOn
p7248
I0
sVprev
p7249
F24.89
sVcaps
p7250
F25.05
ssg7223
F0.4037290000000002
sVmillis
p7251
I567021
sg7225
g27
(S'\x07\xdc\x06\x11\x156\x02\r\xfa\xae'
p7252
tp7253
Rp7254
sa(dp7255
Vmachine
p7256
Vshunt
p7257
sVdata
p7258
(dp7259
Vinverter
p7260
I00
sVnRelaysOn
p7261
I0
sVprev
p7262
F25.05
sVcaps
p7263
F25.09
ssg7223
F0.6056840000000001
sVmillis
p7264
I567223
sg7225
g27
(S'\x07\xdc\x06\x11\x156\x03\x01\xcdQ'
p7265
tp7266
Rp7267
sa(dp7268
Vmachine
p7269
Vshunt
p7270
sVdata
p7271
(dp7272
Vinverter
p7273
I00
sVnRelaysOn
p7274
I0
sVprev
p7275
F25.05
sVcaps
p7276
F25.13
ssg7223
F0.8075799999999997
sVmillis
p7277
I567424
sg7225
g27
(S'\x07\xdc\x06\x11\x156\x03\x04\xe1\xf9'
p7278
tp7279
Rp7280
sa(dp7281
Vmachine
p7282
Vshunt
p7283
sVdata
p7284
(dp7285
Vinverter
p7286
I00
sVnRelaysOn
p7287
I0
sVprev
p7288
F25.05
sVcaps
p7289
F25.15
ssg7223
F1.009544
sVmillis
p7290
I567626
sg7225
g27
(S'\x07\xdc\x06\x11\x156\x03\x07\xf6\xe5'
p7291
tp7292
Rp7293
sa(dp7294
Vmachine
p7295
Vshunt
p7296
sVdata
p7297
(dp7298
Vinverter
p7299
I00
sVnRelaysOn
p7300
I0
sVprev
p7301
F25.05
sVcaps
p7302
F25.18
ssg7223
F1.2113699999999987
sVmillis
p7303
I567826
sg7225
g27
(S'\x07\xdc\x06\x11\x156\x03\x0b\x0bG'
p7304
tp7305
Rp7306
sa(dp7307
Vmachine
p7308
Vshunt
p7309
sVdata
p7310
(dp7311
Vinverter
p7312
I00
sVnRelaysOn
p7313
I0
sVprev
p7314
F25.05
sVcaps
p7315
F25.23
ssg7223
F1.413260000000001
sVmillis
p7316
I568028
sg7225
g27
(S'\x07\xdc\x06\x11\x156\x03\x0e\x1f\xe9'
p7317
tp7318
Rp7319
sa(dp7320
Vmachine
p7321
Vshunt
p7322
sVdata
p7323
(dp7324
Vinverter
p7325
I00
sVnRelaysOn
p7326
I0
sVprev
p7327
F25.23
sVcaps
p7328
F25.26
ssg7223
F1.6052469999999985
sVmillis
p7329
I568228
sg7225
g27
(S'\x07\xdc\x06\x11\x156\x04\x01\xcb\x9c'
p7330
tp7331
Rp7332
sa(dp7333
Vmachine
p7334
Vshunt
p7335
sVdata
p7336
(dp7337
Vinverter
p7338
I00
sVnRelaysOn
p7339
I0
sVprev
p7340
F25.23
sVcaps
p7341
F25.29
ssg7223
F1.808098000000001
sVmillis
p7342
I568429
sg7225
g27
(S'\x07\xdc\x06\x11\x156\x04\x04\xe3\xff'
p7343
tp7344
Rp7345
sa(dp7346
Vmachine
p7347
Vshunt
p7348
sVdata
p7349
(dp7350
Vinverter
p7351
I00
sVnRelaysOn
p7352
I0
sVprev
p7353
F25.23
sVcaps
p7354
F25.33
ssg7223
F2.0102079999999987
sVmillis
p7355
I568631
sg7225
g27
(S'\x07\xdc\x06\x11\x156\x04\x07\xf9}'
p7356
tp7357
Rp7358
sa(dp7359
Vmachine
p7360
Vshunt
p7361
sVdata
p7362
(dp7363
Vinverter
p7364
I00
sVnRelaysOn
p7365
I0
sVprev
p7366
F25.23
sVcaps
p7367
F25.38
ssg7223
F2.211991000000001
sVmillis
p7368
I568832
sg7225
g27
(S'\x07\xdc\x06\x11\x156\x04\x0b\r\xb4'
p7369
tp7370
Rp7371
sa(dp7372
Vmachine
p7373
Vshunt
p7374
sVdata
p7375
(dp7376
Vinverter
p7377
I00
sVnRelaysOn
p7378
I0
sVprev
p7379
F25.23
sVcaps
p7380
F25.4
ssg7223
F2.4141709999999996
sVmillis
p7381
I569034
sg7225
g27
(S'\x07\xdc\x06\x11\x156\x04\x0e#x'
p7382
tp7383
Rp7384
sa(dp7385
Vmachine
p7386
Vshunt
p7387
sVdata
p7388
(dp7389
Vinverter
p7390
I00
sVnRelaysOn
p7391
I0
sVprev
p7392
F25.4
sVcaps
p7393
F25.45
ssg7223
F2.6158360000000016
sVmillis
p7394
I569235
sg7225
g27
(S'\x07\xdc\x06\x11\x156\x05\x01\xf4\xf9'
p7395
tp7396
Rp7397
sa(dp7398
Vmachine
p7399
Vshunt
p7400
sVdata
p7401
(dp7402
Vinverter
p7403
I00
sVnRelaysOn
p7404
I0
sVprev
p7405
F25.4
sVcaps
p7406
F25.46
ssg7223
F2.8176950000000005
sVmillis
p7407
I569436
sg7225
g27
(S'\x07\xdc\x06\x11\x156\x05\x05\t|'
p7408
tp7409
Rp7410
sa(dp7411
Vmachine
p7412
Vshunt
p7413
sVdata
p7414
(dp7415
Vinverter
p7416
I00
sVnRelaysOn
p7417
I0
sVprev
p7418
F25.4
sVcaps
p7419
F25.49
ssg7223
F3.0195819999999998
sVmillis
p7420
I569636
sg7225
g27
(S'\x07\xdc\x06\x11\x156\x05\x08\x1e\x1b'
p7421
tp7422
Rp7423
sa(dp7424
Vmachine
p7425
Vshunt
p7426
sVdata
p7427
(dp7428
Vinverter
p7429
I00
sVnRelaysOn
p7430
I0
sVprev
p7431
F25.4
sVcaps
p7432
F25.52
ssg7223
F3.2214589999999994
sVmillis
p7433
I569837
sg7225
g27
(S'\x07\xdc\x06\x11\x156\x05\x0b2\xb0'
p7434
tp7435
Rp7436
sa(dp7437
Vmachine
p7438
Vshunt
p7439
sVdata
p7440
(dp7441
Vinverter
p7442
I00
sVnRelaysOn
p7443
I0
sVprev
p7444
F25.4
sVcaps
p7445
F25.54
ssg7223
F3.4233860000000007
sVmillis
p7446
I570039
sg7225
g27
(S'\x07\xdc\x06\x11\x156\x05\x0eGw'
p7447
tp7448
Rp7449
sa(dp7450
Vmachine
p7451
Vshunt
p7452
sVdata
p7453
(dp7454
Vinverter
p7455
I00
sVnRelaysOn
p7456
I0
sVprev
p7457
F25.54
sVcaps
p7458
F25.58
ssg7223
F3.6252700000000004
sVmillis
p7459
I570240
sg7225
g27
(S'\x07\xdc\x06\x11\x156\x06\x02\x19\xd3'
p7460
tp7461
Rp7462
sa(dp7463
Vmachine
p7464
Vshunt
p7465
sVdata
p7466
(dp7467
Vinverter
p7468
I00
sVnRelaysOn
p7469
I0
sVprev
p7470
F25.54
sVcaps
p7471
F25.58
ssg7223
F3.827287000000002
sVmillis
p7472
I570442
sg7225
g27
(S'\x07\xdc\x06\x11\x156\x06\x05.\xf4'
p7473
tp7474
Rp7475
sa(dp7476
Vmachine
p7477
Vshunt
p7478
sVdata
p7479
(dp7480
Vinverter
p7481
I00
sVnRelaysOn
p7482
I0
sVprev
p7483
F25.54
sVcaps
p7484
F25.62
ssg7223
F4.019197999999999
sVmillis
p7485
I570642
sg7225
g27
(S'\x07\xdc\x06\x11\x156\x06\x08\x1c\x9b'
p7486
tp7487
Rp7488
sa(dp7489
Vmachine
p7490
Vshunt
p7491
sVdata
p7492
(dp7493
Vinverter
p7494
I00
sVnRelaysOn
p7495
I0
sVprev
p7496
F25.54
sVcaps
p7497
F25.65
ssg7223
F4.220079000000002
sVmillis
p7498
I570844
sg7225
g27
(S'\x07\xdc\x06\x11\x156\x06\x0b-L'
p7499
tp7500
Rp7501
sa(dp7502
Vmachine
p7503
Vshunt
p7504
sVdata
p7505
(dp7506
Vinverter
p7507
I00
sVnRelaysOn
p7508
I0
sVprev
p7509
F25.54
sVcaps
p7510
F25.7
ssg7223
F4.422094000000001
sVmillis
p7511
I571044
sg7225
g27
(S'\x07\xdc\x06\x11\x156\x06\x0eBk'
p7512
tp7513
Rp7514
sa(dp7515
Vmachine
p7516
Vshunt
p7517
sVdata
p7518
(dp7519
Vinverter
p7520
I00
sVnRelaysOn
p7521
I0
sVprev
p7522
F25.7
sVcaps
p7523
F25.72
ssg7223
F4.6239789999999985
sVmillis
p7524
I571245
sg7225
g27
(S'\x07\xdc\x06\x11\x156\x07\x02\x14\xc8'
p7525
tp7526
Rp7527
sa(dp7528
Vmachine
p7529
Vshunt
p7530
sVdata
p7531
(dp7532
Vinverter
p7533
I00
sVnRelaysOn
p7534
I0
sVprev
p7535
F25.7
sVcaps
p7536
F25.77
ssg7223
F4.825870000000002
sVmillis
p7537
I571447
sg7225
g27
(S'\x07\xdc\x06\x11\x156\x07\x05)k'
p7538
tp7539
Rp7540
sa(dp7541
Vmachine
p7542
Vshunt
p7543
sVdata
p7544
(dp7545
Vinverter
p7546
I00
sVnRelaysOn
p7547
I0
sVprev
p7548
F25.7
sVcaps
p7549
F25.78
ssg7223
F5.027761999999999
sVmillis
p7550
I571648
sg7225
g27
(S'\x07\xdc\x06\x11\x156\x07\x08>\x0f'
p7551
tp7552
Rp7553
sa(dp7554
Vmachine
p7555
Vshunt
p7556
sVdata
p7557
(dp7558
Vinverter
p7559
I00
sVnRelaysOn
p7560
I0
sVprev
p7561
F25.7
sVcaps
p7562
F25.81
ssg7223
F5.229763999999999
sVmillis
p7563
I571850
sg7225
g27
(S'\x07\xdc\x06\x11\x156\x07\x0bS!'
p7564
tp7565
Rp7566
sa(dp7567
Vmachine
p7568
Vshunt
p7569
sVdata
p7570
(dp7571
Vinverter
p7572
I00
sVnRelaysOn
p7573
I0
sVprev
p7574
F25.7
sVcaps
p7575
F25.83
ssg7223
F5.431601000000001
sVmillis
p7576
I572050
sg7225
g27
(S'\x07\xdc\x06\x11\x156\x07\x0eg\x8e'
p7577
tp7578
Rp7579
sa(dp7580
Vmachine
p7581
Vshunt
p7582
sVdata
p7583
(dp7584
Vinverter
p7585
I00
sVnRelaysOn
p7586
I0
sVprev
p7587
F25.83
sVcaps
p7588
F25.84
ssg7223
F5.633528999999999
sVmillis
p7589
I572252
sg7225
g27
(S'\x07\xdc\x06\x11\x156\x08\x02:\x16'
p7590
tp7591
Rp7592
sa(dp7593
Vmachine
p7594
Vshunt
p7595
sVdata
p7596
(dp7597
Vinverter
p7598
I00
sVnRelaysOn
p7599
I0
sVprev
p7600
F25.83
sVcaps
p7601
F25.88
ssg7223
F5.835360000000001
sVmillis
p7602
I572453
sg7225
g27
(S'\x07\xdc\x06\x11\x156\x08\x05N}'
p7603
tp7604
Rp7605
sa(dp7606
Vmachine
p7607
Vshunt
p7608
sVdata
p7609
(dp7610
Vinverter
p7611
I00
sVnRelaysOn
p7612
I0
sVprev
p7613
F25.83
sVcaps
p7614
F25.91
ssg7223
F6.037215
sVmillis
p7615
I572653
sg7225
g27
(S'\x07\xdc\x06\x11\x156\x08\x08b\xfc'
p7616
tp7617
Rp7618
sa(dp7619
Vmachine
p7620
Vshunt
p7621
sVdata
p7622
(dp7623
Vinverter
p7624
I00
sVnRelaysOn
p7625
I0
sVprev
p7626
F25.83
sVcaps
p7627
F25.94
ssg7223
F6.2391429999999986
sVmillis
p7628
I572855
sg7225
g27
(S'\x07\xdc\x06\x11\x156\x08\x0bw\xc4'
p7629
tp7630
Rp7631
sa(dp7632
Vmachine
p7633
Vshunt
p7634
sVdata
p7635
(dp7636
Vinverter
p7637
I00
sVnRelaysOn
p7638
I0
sVprev
p7639
F25.83
sVcaps
p7640
F25.97
ssg7223
F6.440946
sVmillis
p7641
I573056
sg7225
g27
(S'\x07\xdc\x06\x11\x156\x08\x0e\x8c\x0f'
p7642
tp7643
Rp7644
sa(dp7645
Vmachine
p7646
Vshunt
p7647
sVdata
p7648
(dp7649
Vinverter
p7650
I00
sVnRelaysOn
p7651
I0
sVprev
p7652
F25.97
sVcaps
p7653
F26.01
ssg7223
F6.643073000000001
sVmillis
p7654
I573258
sg7225
g27
(S'\x07\xdc\x06\x11\x156\t\x02_^'
p7655
tp7656
Rp7657
sa(dp7658
Vmachine
p7659
Vshunt
p7660
sVdata
p7661
(dp7662
Vinverter
p7663
I00
sVnRelaysOn
p7664
I0
sVprev
p7665
F25.97
sVcaps
p7666
F26.03
ssg7223
F6.835007000000001
sVmillis
p7667
I573458
sg7225
g27
(S'\x07\xdc\x06\x11\x156\t\x05M\x1c'
p7668
tp7669
Rp7670
sa(dp7671
Vmachine
p7672
Vshunt
p7673
sVdata
p7674
(dp7675
Vinverter
p7676
I00
sVnRelaysOn
p7677
I0
sVprev
p7678
F25.97
sVcaps
p7679
F26.06
ssg7223
F7.036857000000001
sVmillis
p7680
I573660
sg7225
g27
(S'\x07\xdc\x06\x11\x156\t\x08a\x96'
p7681
tp7682
Rp7683
sa(dp7684
Vmachine
p7685
Vshunt
p7686
sVdata
p7687
(dp7688
Vinverter
p7689
I00
sVnRelaysOn
p7690
I0
sVprev
p7691
F25.97
sVcaps
p7692
F26.08
ssg7223
F7.238817000000001
sVmillis
p7693
I573860
sg7225
g27
(S'\x07\xdc\x06\x11\x156\t\x0bv~'
p7694
tp7695
Rp7696
sa(dp7697
Vmachine
p7698
Vshunt
p7699
sVdata
p7700
(dp7701
Vinverter
p7702
I00
sVnRelaysOn
p7703
I0
sVprev
p7704
F25.97
sVcaps
p7705
F26.08
ssg7223
F7.440714
sVmillis
p7706
I574062
sg7225
g27
(S"\x07\xdc\x06\x11\x156\t\x0e\x8b'"
p7707
tp7708
Rp7709
sa(dp7710
Vmachine
p7711
Vshunt
p7712
sVdata
p7713
(dp7714
Vinverter
p7715
I00
sVnRelaysOn
p7716
I0
sVprev
p7717
F26.08
sVcaps
p7718
F26.13
ssg7223
F7.6426349999999985
sVmillis
p7719
I574263
sg7225
g27
(S'\x07\xdc\x06\x11\x156\n\x02]\xa8'
p7720
tp7721
Rp7722
sa(dp7723
Vmachine
p7724
Vshunt
p7725
sVdata
p7726
(dp7727
Vinverter
p7728
I00
sVnRelaysOn
p7729
I0
sVprev
p7730
F26.08
sVcaps
p7731
F26.14
ssg7223
F7.843952999999999
sVmillis
p7732
I574465
sg7225
g27
(S'\x07\xdc\x06\x11\x156\n\x05p\x0e'
p7733
tp7734
Rp7735
sa(dp7736
Vmachine
p7737
Vshunt
p7738
sVdata
p7739
(dp7740
Vinverter
p7741
I00
sVnRelaysOn
p7742
I0
sVprev
p7743
F26.08
sVcaps
p7744
F26.18
ssg7223
F8.046571
sVmillis
p7745
I574666
sg7225
g27
(S'\x07\xdc\x06\x11\x156\n\x08\x87\x88'
p7746
tp7747
Rp7748
sa(dp7749
Vmachine
p7750
Vshunt
p7751
sVdata
p7752
(dp7753
Vinverter
p7754
I00
sVnRelaysOn
p7755
I0
sVprev
p7756
F26.08
sVcaps
p7757
F26.21
ssg7223
F8.248358
sVmillis
p7758
I574866
sg7225
g27
(S'\x07\xdc\x06\x11\x156\n\x0b\x9b\xc3'
p7759
tp7760
Rp7761
sa(dp7762
Vmachine
p7763
Vshunt
p7764
sVdata
p7765
(dp7766
Vinverter
p7767
I00
sVnRelaysOn
p7768
I0
sVprev
p7769
F26.08
sVcaps
p7770
F26.25
ssg7223
F8.450239
sVmillis
p7771
I575068
sg7225
g27
(S'\x07\xdc\x06\x11\x156\n\x0e\xb0\\'
p7772
tp7773
Rp7774
sa(dp7775
Vmachine
p7776
Vshunt
p7777
sVdata
p7778
(dp7779
Vinverter
p7780
I00
sVnRelaysOn
p7781
I0
sVprev
p7782
F26.25
sVcaps
p7783
F26.25
ssg7223
F8.652047
sVmillis
p7784
I575268
sg7225
g27
(S'\x07\xdc\x06\x11\x156\x0b\x02\x82l'
p7785
tp7786
Rp7787
sa(dp7788
Vmachine
p7789
Vshunt
p7790
sVdata
p7791
(dp7792
Vinverter
p7793
I00
sVnRelaysOn
p7794
I0
sVprev
p7795
F26.25
sVcaps
p7796
F26.29
ssg7223
F8.854049
sVmillis
p7797
I575470
sg7225
g27
(S'\x07\xdc\x06\x11\x156\x0b\x05\x97~'
p7798
tp7799
Rp7800
sa(dp7801
Vmachine
p7802
Vshunt
p7803
sVdata
p7804
(dp7805
Vinverter
p7806
I00
sVnRelaysOn
p7807
I0
sVprev
p7808
F26.25
sVcaps
p7809
F26.33
ssg7223
F9.055878
sVmillis
p7810
I575671
sg7225
g27
(S'\x07\xdc\x06\x11\x156\x0b\x08\xab\xe3'
p7811
tp7812
Rp7813
sa(dp7814
Vmachine
p7815
Vshunt
p7816
sVdata
p7817
(dp7818
Vinverter
p7819
I00
sVnRelaysOn
p7820
I0
sVprev
p7821
F26.25
sVcaps
p7822
F26.34
ssg7223
F9.247888
sVmillis
p7823
I575872
sg7225
g27
(S'\x07\xdc\x06\x11\x156\x0b\x0b\x99\xed'
p7824
tp7825
Rp7826
sa(dp7827
Vmachine
p7828
Vshunt
p7829
sVdata
p7830
(dp7831
Vinverter
p7832
I00
sVnRelaysOn
p7833
I0
sVprev
p7834
F26.25
sVcaps
p7835
F26.37
ssg7223
F9.450854
sVmillis
p7836
I576074
sg7225
g27
(S'\x07\xdc\x06\x11\x156\x0b\x0e\xb2\xc3'
p7837
tp7838
Rp7839
sa(dp7840
Vmachine
p7841
Vshunt
p7842
sVdata
p7843
(dp7844
Vinverter
p7845
I00
sVnRelaysOn
p7846
I0
sVprev
p7847
F26.37
sVcaps
p7848
F26.37
ssg7223
F9.652802000000001
sVmillis
p7849
I576274
sg7225
g27
(S'\x07\xdc\x06\x11\x156\x0c\x02\x85_'
p7850
tp7851
Rp7852
sa(dp7853
Vmachine
p7854
Vshunt
p7855
sVdata
p7856
(dp7857
Vinverter
p7858
I00
sVnRelaysOn
p7859
I0
sVprev
p7860
F26.37
sVcaps
p7861
F26.42
ssg7223
F9.854724000000001
sVmillis
p7862
I576476
sg7225
g27
(S'\x07\xdc\x06\x11\x156\x0c\x05\x9a!'
p7863
tp7864
Rp7865
sa(dp7866
Vmachine
p7867
Vshunt
p7868
sVdata
p7869
(dp7870
Vinverter
p7871
I00
sVnRelaysOn
p7872
I0
sVprev
p7873
F26.37
sVcaps
p7874
F26.41
ssg7223
F10.056630000000002
sVmillis
p7875
I576676
sg7225
g27
(S'\x07\xdc\x06\x11\x156\x0c\x08\xae\xd3'
p7876
tp7877
Rp7878
sa(dp7879
Vmachine
p7880
Vshunt
p7881
sVdata
p7882
(dp7883
Vinverter
p7884
I00
sVnRelaysOn
p7885
I0
sVprev
p7886
F26.37
sVcaps
p7887
F26.44
ssg7223
F10.258478
sVmillis
p7888
I576877
sg7225
g27
(S'\x07\xdc\x06\x11\x156\x0c\x0b\xc3K'
p7889
tp7890
Rp7891
sa(dp7892
Vmachine
p7893
Vshunt
p7894
sVdata
p7895
(dp7896
Vinverter
p7897
I00
sVnRelaysOn
p7898
I0
sVprev
p7899
F26.37
sVcaps
p7900
F26.46
ssg7223
F10.46038
sVmillis
p7901
I577079
sg7225
g27
(S'\x07\xdc\x06\x11\x156\x0c\x0e\xd7\xf9'
p7902
tp7903
Rp7904
saa(lp7905
(dp7906
Vmachine
p7907
Vshunt
p7908
sVdata
p7909
(dp7910
Vinverter
p7911
I00
sVnRelaysOn
p7912
I0
sVprev
p7913
F24.87
sVcaps
p7914
F25.02
ssS'offset'
p7915
F0.0
sVmillis
p7916
I704804
sS'timestamp'
p7917
g27
(S'\x07\xdc\x06\x11\x158\x14\n\x91\xb9'
p7918
tp7919
Rp7920
sa(dp7921
Vmachine
p7922
Vshunt
p7923
sVdata
p7924
(dp7925
Vinverter
p7926
I00
sVnRelaysOn
p7927
I0
sVprev
p7928
F25.02
sVcaps
p7929
F25.03
ssg7915
F0.20189899999999916
sVmillis
p7930
I705006
sg7917
g27
(S'\x07\xdc\x06\x11\x158\x14\r\xa6d'
p7931
tp7932
Rp7933
sa(dp7934
Vmachine
p7935
Vshunt
p7936
sVdata
p7937
(dp7938
Vinverter
p7939
I00
sVnRelaysOn
p7940
I0
sVprev
p7941
F25.02
sVcaps
p7942
F25.07
ssg7915
F0.4038749999999993
sVmillis
p7943
I705207
sg7917
g27
(S'\x07\xdc\x06\x11\x158\x15\x01y\x1c'
p7944
tp7945
Rp7946
sa(dp7947
Vmachine
p7948
Vshunt
p7949
sVdata
p7950
(dp7951
Vinverter
p7952
I00
sVnRelaysOn
p7953
I0
sVprev
p7954
F25.02
sVcaps
p7955
F25.1
ssg7915
F0.6056939999999997
sVmillis
p7956
I705408
sg7917
g27
(S'\x07\xdc\x06\x11\x158\x15\x04\x8dw'
p7957
tp7958
Rp7959
sa(dp7960
Vmachine
p7961
Vshunt
p7962
sVdata
p7963
(dp7964
Vinverter
p7965
I00
sVnRelaysOn
p7966
I0
sVprev
p7967
F25.02
sVcaps
p7968
F25.16
ssg7915
F0.8077159999999992
sVmillis
p7969
I705610
sg7917
g27
(S'\x07\xdc\x06\x11\x158\x15\x07\xa2\x9d'
p7970
tp7971
Rp7972
sa(dp7973
Vmachine
p7974
Vshunt
p7975
sVdata
p7976
(dp7977
Vinverter
p7978
I00
sVnRelaysOn
p7979
I0
sVprev
p7980
F25.02
sVcaps
p7981
F25.18
ssg7915
F1.0095279999999995
sVmillis
p7982
I705811
sg7917
g27
(S'\x07\xdc\x06\x11\x158\x15\n\xb6\xf1'
p7983
tp7984
Rp7985
sa(dp7986
Vmachine
p7987
Vshunt
p7988
sVdata
p7989
(dp7990
Vinverter
p7991
I00
sVnRelaysOn
p7992
I0
sVprev
p7993
F25.18
sVcaps
p7994
F25.22
ssg7915
F1.2114209999999996
sVmillis
p7995
I706012
sg7917
g27
(S'\x07\xdc\x06\x11\x158\x15\r\xcb\x96'
p7996
tp7997
Rp7998
sa(dp7999
Vmachine
p8000
Vshunt
p8001
sVdata
p8002
(dp8003
Vinverter
p8004
I00
sVnRelaysOn
p8005
I0
sVprev
p8006
F25.18
sVcaps
p8007
F25.25
ssg7915
F1.4133139999999997
sVmillis
p8008
I706212
sg7917
g27
(S'\x07\xdc\x06\x11\x158\x16\x01\x9d\xfb'
p8009
tp8010
Rp8011
sa(dp8012
Vmachine
p8013
Vshunt
p8014
sVdata
p8015
(dp8016
Vinverter
p8017
I00
sVnRelaysOn
p8018
I0
sVprev
p8019
F25.18
sVcaps
p8020
F25.29
ssg7915
F1.6150959999999994
sVmillis
p8021
I706413
sg7917
g27
(S'\x07\xdc\x06\x11\x158\x16\x04\xb21'
p8022
tp8023
Rp8024
sa(dp8025
Vmachine
p8026
Vshunt
p8027
sVdata
p8028
(dp8029
Vinverter
p8030
I00
sVnRelaysOn
p8031
I0
sVprev
p8032
F25.18
sVcaps
p8033
F25.33
ssg7915
F1.8167760000000008
sVmillis
p8034
I706615
sg7917
g27
(S'\x07\xdc\x06\x11\x158\x16\x07\xc6\x01'
p8035
tp8036
Rp8037
sa(dp8038
Vmachine
p8039
Vshunt
p8040
sVdata
p8041
(dp8042
Vinverter
p8043
I00
sVnRelaysOn
p8044
I0
sVprev
p8045
F25.18
sVcaps
p8046
F25.36
ssg7915
F2.019026
sVmillis
p8047
I706816
sg7917
g27
(S'\x07\xdc\x06\x11\x158\x16\n\xdc\x0b'
p8048
tp8049
Rp8050
sa(dp8051
Vmachine
p8052
Vshunt
p8053
sVdata
p8054
(dp8055
Vinverter
p8056
I00
sVnRelaysOn
p8057
I0
sVprev
p8058
F25.36
sVcaps
p8059
F25.41
ssg7915
F2.2200670000000002
sVmillis
p8060
I707018
sg7917
g27
(S'\x07\xdc\x06\x11\x158\x16\r\xed\\'
p8061
tp8062
Rp8063
sa(dp8064
Vmachine
p8065
Vshunt
p8066
sVdata
p8067
(dp8068
Vinverter
p8069
I00
sVnRelaysOn
p8070
I0
sVprev
p8071
F25.36
sVcaps
p8072
F25.42
ssg7915
F2.41235
sVmillis
p8073
I707219
sg7917
g27
(S'\x07\xdc\x06\x11\x158\x17\x01\x9a7'
p8074
tp8075
Rp8076
sa(dp8077
Vmachine
p8078
Vshunt
p8079
sVdata
p8080
(dp8081
Vinverter
p8082
I00
sVnRelaysOn
p8083
I0
sVprev
p8084
F25.36
sVcaps
p8085
F25.48
ssg7915
F2.6148890000000016
sVmillis
p8086
I707420
sg7917
g27
(S'\x07\xdc\x06\x11\x158\x17\x04\xb1b'
p8087
tp8088
Rp8089
sa(dp8090
Vmachine
p8091
Vshunt
p8092
sVdata
p8093
(dp8094
Vinverter
p8095
I00
sVnRelaysOn
p8096
I0
sVprev
p8097
F25.36
sVcaps
p8098
F25.5
ssg7915
F2.816825999999999
sVmillis
p8099
I707620
sg7917
g27
(S'\x07\xdc\x06\x11\x158\x17\x07\xc63'
p8100
tp8101
Rp8102
sa(dp8103
Vmachine
p8104
Vshunt
p8105
sVdata
p8106
(dp8107
Vinverter
p8108
I00
sVnRelaysOn
p8109
I0
sVprev
p8110
F25.36
sVcaps
p8111
F25.52
ssg7915
F3.01868
sVmillis
p8112
I707821
sg7917
g27
(S'\x07\xdc\x06\x11\x158\x17\n\xda\xb1'
p8113
tp8114
Rp8115
sa(dp8116
Vmachine
p8117
Vshunt
p8118
sVdata
p8119
(dp8120
Vinverter
p8121
I00
sVnRelaysOn
p8122
I0
sVprev
p8123
F25.52
sVcaps
p8124
F25.54
ssg7915
F3.2205820000000003
sVmillis
p8125
I708023
sg7917
g27
(S'\x07\xdc\x06\x11\x158\x17\r\xef_'
p8126
tp8127
Rp8128
sa(dp8129
Vmachine
p8130
Vshunt
p8131
sVdata
p8132
(dp8133
Vinverter
p8134
I00
sVnRelaysOn
p8135
I0
sVprev
p8136
F25.52
sVcaps
p8137
F25.56
ssg7915
F3.421524999999999
sVmillis
p8138
I708225
sg7917
g27
(S'\x07\xdc\x06\x11\x158\x18\x01\xbe\x0e'
p8139
tp8140
Rp8141
sa(dp8142
Vmachine
p8143
Vshunt
p8144
sVdata
p8145
(dp8146
Vinverter
p8147
I00
sVnRelaysOn
p8148
I0
sVprev
p8149
F25.52
sVcaps
p8150
F25.6
ssg7915
F3.623576
sVmillis
p8151
I708426
sg7917
g27
(S'\x07\xdc\x06\x11\x158\x18\x04\xd3Q'
p8152
tp8153
Rp8154
sa(dp8155
Vmachine
p8156
Vshunt
p8157
sVdata
p8158
(dp8159
Vinverter
p8160
I00
sVnRelaysOn
p8161
I0
sVprev
p8162
F25.52
sVcaps
p8163
F25.62
ssg7915
F3.825282999999999
sVmillis
p8164
I708626
sg7917
g27
(S'\x07\xdc\x06\x11\x158\x18\x07\xe7<'
p8165
tp8166
Rp8167
sa(dp8168
Vmachine
p8169
Vshunt
p8170
sVdata
p8171
(dp8172
Vinverter
p8173
I00
sVnRelaysOn
p8174
I0
sVprev
p8175
F25.52
sVcaps
p8176
F25.67
ssg7915
F4.0271539999999995
sVmillis
p8177
I708828
sg7917
g27
(S'\x07\xdc\x06\x11\x158\x18\n\xfb\xcb'
p8178
tp8179
Rp8180
sa(dp8181
Vmachine
p8182
Vshunt
p8183
sVdata
p8184
(dp8185
Vinverter
p8186
I00
sVnRelaysOn
p8187
I0
sVprev
p8188
F25.67
sVcaps
p8189
F25.7
ssg7915
F4.229053
sVmillis
p8190
I709028
sg7917
g27
(S'\x07\xdc\x06\x11\x158\x18\x0e\x10v'
p8191
tp8192
Rp8193
sa(dp8194
Vmachine
p8195
Vshunt
p8196
sVdata
p8197
(dp8198
Vinverter
p8199
I00
sVnRelaysOn
p8200
I0
sVprev
p8201
F25.67
sVcaps
p8202
F25.75
ssg7915
F4.431018999999999
sVmillis
p8203
I709229
sg7917
g27
(S'\x07\xdc\x06\x11\x158\x19\x01\xe3$'
p8204
tp8205
Rp8206
sa(dp8207
Vmachine
p8208
Vshunt
p8209
sVdata
p8210
(dp8211
Vinverter
p8212
I00
sVnRelaysOn
p8213
I0
sVprev
p8214
F25.67
sVcaps
p8215
F25.75
ssg7915
F4.632809999999999
sVmillis
p8216
I709431
sg7917
g27
(S'\x07\xdc\x06\x11\x158\x19\x04\xf7c'
p8217
tp8218
Rp8219
sa(dp8220
Vmachine
p8221
Vshunt
p8222
sVdata
p8223
(dp8224
Vinverter
p8225
I00
sVnRelaysOn
p8226
I0
sVprev
p8227
F25.67
sVcaps
p8228
F25.8
ssg7915
F4.8248
sVmillis
p8229
I709632
sg7917
g27
(S'\x07\xdc\x06\x11\x158\x19\x07\xe5Y'
p8230
tp8231
Rp8232
sa(dp8233
Vmachine
p8234
Vshunt
p8235
sVdata
p8236
(dp8237
Vinverter
p8238
I00
sVnRelaysOn
p8239
I0
sVprev
p8240
F25.67
sVcaps
p8241
F25.8
ssg7915
F5.027809000000001
sVmillis
p8242
I709834
sg7917
g27
(S'\x07\xdc\x06\x11\x158\x19\n\xfeZ'
p8243
tp8244
Rp8245
sa(dp8246
Vmachine
p8247
Vshunt
p8248
sVdata
p8249
(dp8250
Vinverter
p8251
I00
sVnRelaysOn
p8252
I0
sVprev
p8253
F25.8
sVcaps
p8254
F25.83
ssg7915
F5.229901999999999
sVmillis
p8255
I710034
sg7917
g27
(S'\x07\xdc\x06\x11\x158\x19\x0e\x13\xc7'
p8256
tp8257
Rp8258
sa(dp8259
Vmachine
p8260
Vshunt
p8261
sVdata
p8262
(dp8263
Vinverter
p8264
I00
sVnRelaysOn
p8265
I0
sVprev
p8266
F25.8
sVcaps
p8267
F25.84
ssg7915
F5.431759
sVmillis
p8268
I710236
sg7917
g27
(S'\x07\xdc\x06\x11\x158\x1a\x01\xe6\x08'
p8269
tp8270
Rp8271
sa(dp8272
Vmachine
p8273
Vshunt
p8274
sVdata
p8275
(dp8276
Vinverter
p8277
I00
sVnRelaysOn
p8278
I0
sVprev
p8279
F25.8
sVcaps
p8280
F25.87
ssg7915
F5.633579000000001
sVmillis
p8281
I710436
sg7917
g27
(S'\x07\xdc\x06\x11\x158\x1a\x04\xfad'
p8282
tp8283
Rp8284
sa(dp8285
Vmachine
p8286
Vshunt
p8287
sVdata
p8288
(dp8289
Vinverter
p8290
I00
sVnRelaysOn
p8291
I0
sVprev
p8292
F25.8
sVcaps
p8293
F25.89
ssg7915
F5.835415000000001
sVmillis
p8294
I710638
sg7917
g27
(S'\x07\xdc\x06\x11\x158\x1a\x08\x0e\xd0'
p8295
tp8296
Rp8297
sa(dp8298
Vmachine
p8299
Vshunt
p8300
sVdata
p8301
(dp8302
Vinverter
p8303
I00
sVnRelaysOn
p8304
I0
sVprev
p8305
F25.8
sVcaps
p8306
F25.94
ssg7915
F6.037313000000001
sVmillis
p8307
I710839
sg7917
g27
(S'\x07\xdc\x06\x11\x158\x1a\x0b#z'
p8308
tp8309
Rp8310
sa(dp8311
Vmachine
p8312
Vshunt
p8313
sVdata
p8314
(dp8315
Vinverter
p8316
I00
sVnRelaysOn
p8317
I0
sVprev
p8318
F25.94
sVcaps
p8319
F25.95
ssg7915
F6.239279
sVmillis
p8320
I711040
sg7917
g27
(S'\x07\xdc\x06\x11\x158\x1a\x0e8h'
p8321
tp8322
Rp8323
sa(dp8324
Vmachine
p8325
Vshunt
p8326
sVdata
p8327
(dp8328
Vinverter
p8329
I00
sVnRelaysOn
p8330
I0
sVprev
p8331
F25.94
sVcaps
p8332
F26.01
ssg7915
F6.44023
sVmillis
p8333
I711242
sg7917
g27
(S'\x07\xdc\x06\x11\x158\x1b\x02\x07\x1f'
p8334
tp8335
Rp8336
sa(dp8337
Vmachine
p8338
Vshunt
p8339
sVdata
p8340
(dp8341
Vinverter
p8342
I00
sVnRelaysOn
p8343
I0
sVprev
p8344
F25.94
sVcaps
p8345
F26.05
ssg7915
F6.6434190000000015
sVmillis
p8346
I711442
sg7917
g27
(S'\x07\xdc\x06\x11\x158\x1b\x05 \xd4'
p8347
tp8348
Rp8349
sa(dp8350
Vmachine
p8351
Vshunt
p8352
sVdata
p8353
(dp8354
Vinverter
p8355
I00
sVnRelaysOn
p8356
I0
sVprev
p8357
F25.94
sVcaps
p8358
F26.05
ssg7915
F6.844881999999998
sVmillis
p8359
I711644
sg7917
g27
(S'\x07\xdc\x06\x11\x158\x1b\x083\xcb'
p8360
tp8361
Rp8362
sa(dp8363
Vmachine
p8364
Vshunt
p8365
sVdata
p8366
(dp8367
Vinverter
p8368
I00
sVnRelaysOn
p8369
I0
sVprev
p8370
F25.94
sVcaps
p8371
F26.08
ssg7915
F7.046849999999999
sVmillis
p8372
I711845
sg7917
g27
(S'\x07\xdc\x06\x11\x158\x1b\x0bH\xbb'
p8373
tp8374
Rp8375
sa(dp8376
Vmachine
p8377
Vshunt
p8378
sVdata
p8379
(dp8380
Vinverter
p8381
I00
sVnRelaysOn
p8382
I0
sVprev
p8383
F26.08
sVcaps
p8384
F26.12
ssg7915
F7.2379570000000015
sVmillis
p8385
I712045
sg7917
g27
(S'\x07\xdc\x06\x11\x158\x1b\x0e3>'
p8386
tp8387
Rp8388
sa(dp8389
Vmachine
p8390
Vshunt
p8391
sVdata
p8392
(dp8393
Vinverter
p8394
I00
sVnRelaysOn
p8395
I0
sVprev
p8396
F26.08
sVcaps
p8397
F26.18
ssg7915
F7.441590999999999
sVmillis
p8398
I712247
sg7917
g27
(S'\x07\xdc\x06\x11\x158\x1c\x02\x0cp'
p8399
tp8400
Rp8401
sa(dp8402
Vmachine
p8403
Vshunt
p8404
sVdata
p8405
(dp8406
Vinverter
p8407
I00
sVnRelaysOn
p8408
I0
sVprev
p8409
F26.08
sVcaps
p8410
F26.21
ssg7915
F7.643668999999999
sVmillis
p8411
I712448
sg7917
g27
(S'\x07\xdc\x06\x11\x158\x1c\x05!\xce'
p8412
tp8413
Rp8414
sa(dp8415
Vmachine
p8416
Vshunt
p8417
sVdata
p8418
(dp8419
Vinverter
p8420
I00
sVnRelaysOn
p8421
I0
sVprev
p8422
F26.08
sVcaps
p8423
F26.28
ssg7915
F7.845610999999998
sVmillis
p8424
I712650
sg7917
g27
(S'\x07\xdc\x06\x11\x158\x1c\x086\xa4'
p8425
tp8426
Rp8427
sa(dp8428
Vmachine
p8429
Vshunt
p8430
sVdata
p8431
(dp8432
Vinverter
p8433
I00
sVnRelaysOn
p8434
I0
sVprev
p8435
F26.08
sVcaps
p8436
F26.31
ssg7915
F8.047473
sVmillis
p8437
I712850
sg7917
g27
(S'\x07\xdc\x06\x11\x158\x1c\x0bK*'
p8438
tp8439
Rp8440
sa(dp8441
Vmachine
p8442
Vshunt
p8443
sVdata
p8444
(dp8445
Vinverter
p8446
I00
sVnRelaysOn
p8447
I0
sVprev
p8448
F26.31
sVcaps
p8449
F26.34
ssg7915
F8.249351
sVmillis
p8450
I713052
sg7917
g27
(S'\x07\xdc\x06\x11\x158\x1c\x0e_\xc0'
p8451
tp8452
Rp8453
sa(dp8454
Vmachine
p8455
Vshunt
p8456
sVdata
p8457
(dp8458
Vinverter
p8459
I00
sVnRelaysOn
p8460
I0
sVprev
p8461
F26.31
sVcaps
p8462
F26.36
ssg7915
F8.451211
sVmillis
p8463
I713252
sg7917
g27
(S'\x07\xdc\x06\x11\x158\x1d\x022\x04'
p8464
tp8465
Rp8466
sa(dp8467
Vmachine
p8468
Vshunt
p8469
sVdata
p8470
(dp8471
Vinverter
p8472
I00
sVnRelaysOn
p8473
I0
sVprev
p8474
F26.31
sVcaps
p8475
F26.39
ssg7915
F8.653133
sVmillis
p8476
I713453
sg7917
g27
(S'\x07\xdc\x06\x11\x158\x1d\x05F\xc6'
p8477
tp8478
Rp8479
sa(dp8480
Vmachine
p8481
Vshunt
p8482
sVdata
p8483
(dp8484
Vinverter
p8485
I00
sVnRelaysOn
p8486
I0
sVprev
p8487
F26.31
sVcaps
p8488
F26.42
ssg7915
F8.854906
sVmillis
p8489
I713655
sg7917
g27
(S'\x07\xdc\x06\x11\x158\x1d\x08Z\xf3'
p8490
tp8491
Rp8492
sa(dp8493
Vmachine
p8494
Vshunt
p8495
sVdata
p8496
(dp8497
Vinverter
p8498
I00
sVnRelaysOn
p8499
I0
sVprev
p8500
F26.31
sVcaps
p8501
F26.45
ssg7915
F9.056242000000001
sVmillis
p8502
I713856
sg7917
g27
(S'\x07\xdc\x06\x11\x158\x1d\x0bmk'
p8503
tp8504
Rp8505
saa(lp8506
(dp8507
Vmachine
p8508
Vshunt
p8509
sVdata
p8510
(dp8511
Vinverter
p8512
I00
sVnRelaysOn
p8513
I0
sVprev
p8514
F24.84
sVcaps
p8515
F25.0
ssS'offset'
p8516
F0.0
sVmillis
p8517
I771786
sS'timestamp'
p8518
g27
(S'\x07\xdc\x06\x11\x159\x1b\n@\x1e'
p8519
tp8520
Rp8521
sa(dp8522
Vmachine
p8523
Vshunt
p8524
sVdata
p8525
(dp8526
Vinverter
p8527
I00
sVnRelaysOn
p8528
I0
sVprev
p8529
F24.84
sVcaps
p8530
F25.04
ssg8516
F0.2018979999999999
sVmillis
p8531
I771986
sg8518
g27
(S'\x07\xdc\x06\x11\x159\x1b\rT\xc8'
p8532
tp8533
Rp8534
sa(dp8535
Vmachine
p8536
Vshunt
p8537
sVdata
p8538
(dp8539
Vinverter
p8540
I00
sVnRelaysOn
p8541
I0
sVprev
p8542
F24.84
sVcaps
p8543
F25.08
ssg8516
F0.40378199999999964
sVmillis
p8544
I772188
sg8518
g27
(S"\x07\xdc\x06\x11\x159\x1c\x01'$"
p8545
tp8546
Rp8547
sa(dp8548
Vmachine
p8549
Vshunt
p8550
sVdata
p8551
(dp8552
Vinverter
p8553
I00
sVnRelaysOn
p8554
I0
sVprev
p8555
F25.08
sVcaps
p8556
F25.11
ssg8516
F0.6057419999999993
sVmillis
p8557
I772388
sg8518
g27
(S'\x07\xdc\x06\x11\x159\x1c\x04<\x0c'
p8558
tp8559
Rp8560
sa(dp8561
Vmachine
p8562
Vshunt
p8563
sVdata
p8564
(dp8565
Vinverter
p8566
I00
sVnRelaysOn
p8567
I0
sVprev
p8568
F25.08
sVcaps
p8569
F25.16
ssg8516
F0.8072780000000002
sVmillis
p8570
I772590
sg8518
g27
(S'\x07\xdc\x06\x11\x159\x1c\x07OL'
p8571
tp8572
Rp8573
sa(dp8574
Vmachine
p8575
Vshunt
p8576
sVdata
p8577
(dp8578
Vinverter
p8579
I00
sVnRelaysOn
p8580
I0
sVprev
p8581
F25.08
sVcaps
p8582
F25.19
ssg8516
F1.009913000000001
sVmillis
p8583
I772791
sg8518
g27
(S'\x07\xdc\x06\x11\x159\x1c\nf\xd7'
p8584
tp8585
Rp8586
sa(dp8587
Vmachine
p8588
Vshunt
p8589
sVdata
p8590
(dp8591
Vinverter
p8592
I00
sVnRelaysOn
p8593
I0
sVprev
p8594
F25.08
sVcaps
p8595
F25.23
ssg8516
F1.2114069999999995
sVmillis
p8596
I772992
sg8518
g27
(S'\x07\xdc\x06\x11\x159\x1c\ry\xed'
p8597
tp8598
Rp8599
sa(dp8600
Vmachine
p8601
Vshunt
p8602
sVdata
p8603
(dp8604
Vinverter
p8605
I00
sVnRelaysOn
p8606
I0
sVprev
p8607
F25.08
sVcaps
p8608
F25.29
ssg8516
F1.4134279999999997
sVmillis
p8609
I773194
sg8518
g27
(S'\x07\xdc\x06\x11\x159\x1d\x01L\xd2'
p8610
tp8611
Rp8612
sa(dp8613
Vmachine
p8614
Vshunt
p8615
sVdata
p8616
(dp8617
Vinverter
p8618
I00
sVnRelaysOn
p8619
I0
sVprev
p8620
F25.29
sVcaps
p8621
F25.33
ssg8516
F1.615221
sVmillis
p8622
I773394
sg8518
g27
(S'\x07\xdc\x06\x11\x159\x1d\x04a\x13'
p8623
tp8624
Rp8625
sa(dp8626
Vmachine
p8627
Vshunt
p8628
sVdata
p8629
(dp8630
Vinverter
p8631
I00
sVnRelaysOn
p8632
I0
sVprev
p8633
F25.29
sVcaps
p8634
F25.41
ssg8516
F1.81719
sVmillis
p8635
I773596
sg8518
g27
(S'\x07\xdc\x06\x11\x159\x1d\x07v\x04'
p8636
tp8637
Rp8638
sa(dp8639
Vmachine
p8640
Vshunt
p8641
sVdata
p8642
(dp8643
Vinverter
p8644
I00
sVnRelaysOn
p8645
I0
sVprev
p8646
F25.29
sVcaps
p8647
F25.44
ssg8516
F2.018923000000001
sVmillis
p8648
I773796
sg8518
g27
(S'\x07\xdc\x06\x11\x159\x1d\n\x8a\t'
p8649
tp8650
Rp8651
sa(dp8652
Vmachine
p8653
Vshunt
p8654
sVdata
p8655
(dp8656
Vinverter
p8657
I00
sVnRelaysOn
p8658
I0
sVprev
p8659
F25.29
sVcaps
p8660
F25.5
ssg8516
F2.2107399999999995
sVmillis
p8661
I773997
sg8518
g27
(S'\x07\xdc\x06\x11\x159\x1d\rwR'
p8662
tp8663
Rp8664
sa(dp8665
Vmachine
p8666
Vshunt
p8667
sVdata
p8668
(dp8669
Vinverter
p8670
I00
sVnRelaysOn
p8671
I0
sVprev
p8672
F25.29
sVcaps
p8673
F25.52
ssg8516
F2.4138780000000004
sVmillis
p8674
I774199
sg8518
g27
(S'\x07\xdc\x06\x11\x159\x1e\x01N\x94'
p8675
tp8676
Rp8677
sa(dp8678
Vmachine
p8679
Vshunt
p8680
sVdata
p8681
(dp8682
Vinverter
p8683
I00
sVnRelaysOn
p8684
I0
sVprev
p8685
F25.52
sVcaps
p8686
F25.56
ssg8516
F2.615762
sVmillis
p8687
I774400
sg8518
g27
(S'\x07\xdc\x06\x11\x159\x1e\x04c0'
p8688
tp8689
Rp8690
sa(dp8691
Vmachine
p8692
Vshunt
p8693
sVdata
p8694
(dp8695
Vinverter
p8696
I00
sVnRelaysOn
p8697
I0
sVprev
p8698
F25.52
sVcaps
p8699
F25.6
ssg8516
F2.8177000000000003
sVmillis
p8700
I774602
sg8518
g27
(S'\x07\xdc\x06\x11\x159\x1e\x07x\x02'
p8701
tp8702
Rp8703
sa(dp8704
Vmachine
p8705
Vshunt
p8706
sVdata
p8707
(dp8708
Vinverter
p8709
I00
sVnRelaysOn
p8710
I0
sVprev
p8711
F25.52
sVcaps
p8712
F25.65
ssg8516
F3.0195989999999995
sVmillis
p8713
I774802
sg8518
g27
(S'\x07\xdc\x06\x11\x159\x1e\n\x8c\xad'
p8714
tp8715
Rp8716
sa(dp8717
Vmachine
p8718
Vshunt
p8719
sVdata
p8720
(dp8721
Vinverter
p8722
I00
sVnRelaysOn
p8723
I0
sVprev
p8724
F25.52
sVcaps
p8725
F25.71
ssg8516
F3.2215170000000004
sVmillis
p8726
I775004
sg8518
g27
(S'\x07\xdc\x06\x11\x159\x1e\r\xa1k'
p8727
tp8728
Rp8729
sa(dp8730
Vmachine
p8731
Vshunt
p8732
sVdata
p8733
(dp8734
Vinverter
p8735
I00
sVnRelaysOn
p8736
I0
sVprev
p8737
F25.52
sVcaps
p8738
F25.73
ssg8516
F3.422752000000001
sVmillis
p8739
I775204
sg8518
g27
(S'\x07\xdc\x06\x11\x159\x1f\x01q>'
p8740
tp8741
Rp8742
sa(dp8743
Vmachine
p8744
Vshunt
p8745
sVdata
p8746
(dp8747
Vinverter
p8748
I00
sVnRelaysOn
p8749
I0
sVprev
p8750
F25.73
sVcaps
p8751
F25.77
ssg8516
F3.623932
sVmillis
p8752
I775405
sg8518
g27
(S'\x07\xdc\x06\x11\x159\x1f\x04\x83\x1a'
p8753
tp8754
Rp8755
sa(dp8756
Vmachine
p8757
Vshunt
p8758
sVdata
p8759
(dp8760
Vinverter
p8761
I00
sVnRelaysOn
p8762
I0
sVprev
p8763
F25.73
sVcaps
p8764
F25.8
ssg8516
F3.8272899999999996
sVmillis
p8765
I775607
sg8518
g27
(S'\x07\xdc\x06\x11\x159\x1f\x07\x9dx'
p8766
tp8767
Rp8768
sa(dp8769
Vmachine
p8770
Vshunt
p8771
sVdata
p8772
(dp8773
Vinverter
p8774
I00
sVnRelaysOn
p8775
I0
sVprev
p8776
F25.73
sVcaps
p8777
F25.87
ssg8516
F4.0290490000000005
sVmillis
p8778
I775808
sg8518
g27
(S'\x07\xdc\x06\x11\x159\x1f\n\xb1\x97'
p8779
tp8780
Rp8781
sa(dp8782
Vmachine
p8783
Vshunt
p8784
sVdata
p8785
(dp8786
Vinverter
p8787
I00
sVnRelaysOn
p8788
I0
sVprev
p8789
F25.73
sVcaps
p8790
F25.9
ssg8516
F4.231008000000001
sVmillis
p8791
I776010
sg8518
g27
(S'\x07\xdc\x06\x11\x159\x1f\r\xc6~'
p8792
tp8793
Rp8794
sa(dp8795
Vmachine
p8796
Vshunt
p8797
sVdata
p8798
(dp8799
Vinverter
p8800
I00
sVnRelaysOn
p8801
I0
sVprev
p8802
F25.73
sVcaps
p8803
F25.95
ssg8516
F4.431947000000001
sVmillis
p8804
I776210
sg8518
g27
(S'\x07\xdc\x06\x11\x159 \x01\x95)'
p8805
tp8806
Rp8807
sa(dp8808
Vmachine
p8809
Vshunt
p8810
sVdata
p8811
(dp8812
Vinverter
p8813
I00
sVnRelaysOn
p8814
I0
sVprev
p8815
F25.95
sVcaps
p8816
F26.01
ssg8516
F4.623075
sVmillis
p8817
I776412
sg8518
g27
(S'\x07\xdc\x06\x11\x159 \x04\x7f\xc1'
p8818
tp8819
Rp8820
sa(dp8821
Vmachine
p8822
Vshunt
p8823
sVdata
p8824
(dp8825
Vinverter
p8826
I00
sVnRelaysOn
p8827
I0
sVprev
p8828
F25.95
sVcaps
p8829
F26.04
ssg8516
F4.826661
sVmillis
p8830
I776612
sg8518
g27
(S'\x07\xdc\x06\x11\x159 \x07\x9b\x03'
p8831
tp8832
Rp8833
sa(dp8834
Vmachine
p8835
Vshunt
p8836
sVdata
p8837
(dp8838
Vinverter
p8839
I00
sVnRelaysOn
p8840
I0
sVprev
p8841
F25.95
sVcaps
p8842
F26.07
ssg8516
F5.028681000000001
sVmillis
p8843
I776813
sg8518
g27
(S"\x07\xdc\x06\x11\x159 \n\xb0'"
p8844
tp8845
Rp8846
sa(dp8847
Vmachine
p8848
Vshunt
p8849
sVdata
p8850
(dp8851
Vinverter
p8852
I00
sVnRelaysOn
p8853
I0
sVprev
p8854
F25.95
sVcaps
p8855
F26.1
ssg8516
F5.230596
sVmillis
p8856
I777015
sg8518
g27
(S'\x07\xdc\x06\x11\x159 \r\xc4\xe2'
p8857
tp8858
Rp8859
sa(dp8860
Vmachine
p8861
Vshunt
p8862
sVdata
p8863
(dp8864
Vinverter
p8865
I00
sVnRelaysOn
p8866
I0
sVprev
p8867
F25.95
sVcaps
p8868
F26.12
ssg8516
F5.4323999999999995
sVmillis
p8869
I777216
sg8518
g27
(S'\x07\xdc\x06\x11\x159!\x01\x96\xee'
p8870
tp8871
Rp8872
sa(dp8873
Vmachine
p8874
Vshunt
p8875
sVdata
p8876
(dp8877
Vinverter
p8878
I00
sVnRelaysOn
p8879
I0
sVprev
p8880
F26.12
sVcaps
p8881
F26.16
ssg8516
F5.634468
sVmillis
p8882
I777418
sg8518
g27
(S'\x07\xdc\x06\x11\x159!\x04\xacB'
p8883
tp8884
Rp8885
sa(dp8886
Vmachine
p8887
Vshunt
p8888
sVdata
p8889
(dp8890
Vinverter
p8891
I00
sVnRelaysOn
p8892
I0
sVprev
p8893
F26.12
sVcaps
p8894
F26.21
ssg8516
F5.836459
sVmillis
p8895
I777619
sg8518
g27
(S'\x07\xdc\x06\x11\x159!\x07\xc1I'
p8896
tp8897
Rp8898
sa(dp8899
Vmachine
p8900
Vshunt
p8901
sVdata
p8902
(dp8903
Vinverter
p8904
I00
sVnRelaysOn
p8905
I0
sVprev
p8906
F26.12
sVcaps
p8907
F26.27
ssg8516
F6.038252
sVmillis
p8908
I777820
sg8518
g27
(S'\x07\xdc\x06\x11\x159!\n\xd5\x8a'
p8909
tp8910
Rp8911
sa(dp8912
Vmachine
p8913
Vshunt
p8914
sVdata
p8915
(dp8916
Vinverter
p8917
I00
sVnRelaysOn
p8918
I0
sVprev
p8919
F26.12
sVcaps
p8920
F26.3
ssg8516
F6.240192
sVmillis
p8921
I778020
sg8518
g27
(S'\x07\xdc\x06\x11\x159!\r\xea^'
p8922
tp8923
Rp8924
sa(dp8925
Vmachine
p8926
Vshunt
p8927
sVdata
p8928
(dp8929
Vinverter
p8930
I00
sVnRelaysOn
p8931
I0
sVprev
p8932
F26.12
sVcaps
p8933
F26.36
ssg8516
F6.441901
sVmillis
p8934
I778221
sg8518
g27
(S'\x07\xdc\x06\x11\x159"\x01\xbc\x0b'
p8935
tp8936
Rp8937
sa(dp8938
Vmachine
p8939
Vshunt
p8940
sVdata
p8941
(dp8942
Vinverter
p8943
I00
sVnRelaysOn
p8944
I0
sVprev
p8945
F26.36
sVcaps
p8946
F26.38
ssg8516
F6.643898999999999
sVmillis
p8947
I778423
sg8518
g27
(S'\x07\xdc\x06\x11\x159"\x04\xd1\x19'
p8948
tp8949
Rp8950
sa(dp8951
Vmachine
p8952
Vshunt
p8953
sVdata
p8954
(dp8955
Vinverter
p8956
I00
sVnRelaysOn
p8957
I0
sVprev
p8958
F26.36
sVcaps
p8959
F26.42
ssg8516
F6.845782
sVmillis
p8960
I778624
sg8518
g27
(S'\x07\xdc\x06\x11\x159"\x07\xe5\xb4'
p8961
tp8962
Rp8963
sa(dp8964
Vmachine
p8965
Vshunt
p8966
sVdata
p8967
(dp8968
Vinverter
p8969
I00
sVnRelaysOn
p8970
I0
sVprev
p8971
F26.36
sVcaps
p8972
F26.48
ssg8516
F7.047803
sVmillis
p8973
I778826
sg8518
g27
(S'\x07\xdc\x06\x11\x159"\n\xfa\xd9'
p8974
tp8975
Rp8976
sa(dp8977
Vmachine
p8978
Vshunt
p8979
sVdata
p8980
(dp8981
Vinverter
p8982
I00
sVnRelaysOn
p8983
I0
sVprev
p8984
F26.36
sVcaps
p8985
F26.49
ssg8516
F7.23977
sVmillis
p8986
I779027
sg8518
g27
(S'\x07\xdc\x06\x11\x159"\r\xe8\xb8'
p8987
tp8988
Rp8989
saa(lp8990
(dp8991
Vmachine
p8992
Vshunt
p8993
sVdata
p8994
(dp8995
Vinverter
p8996
I00
sVnRelaysOn
p8997
I0
sVprev
p8998
F24.74
sVcaps
p8999
F25.03
ssS'offset'
p9000
F0.0
sVmillis
p9001
I925056
sS'timestamp'
p9002
g27
(S'\x07\xdc\x06\x11\x16\x00\x00\x0eW\xf7'
p9003
tp9004
Rp9005
sa(dp9006
Vmachine
p9007
Vshunt
p9008
sVdata
p9009
(dp9010
Vinverter
p9011
I00
sVnRelaysOn
p9012
I0
sVprev
p9013
F25.03
sVcaps
p9014
F25.1
ssg9000
F0.20205799999999918
sVmillis
p9015
I925258
sg9002
g27
(S'\x07\xdc\x06\x11\x16\x00\x01\x02+\x01'
p9016
tp9017
Rp9018
sa(dp9019
Vmachine
p9020
Vshunt
p9021
sVdata
p9022
(dp9023
Vinverter
p9024
I00
sVnRelaysOn
p9025
I0
sVprev
p9026
F25.03
sVcaps
p9027
F25.13
ssg9000
F0.40388800000000025
sVmillis
p9028
I925459
sg9002
g27
(S'\x07\xdc\x06\x11\x16\x00\x01\x05?g'
p9029
tp9030
Rp9031
sa(dp9032
Vmachine
p9033
Vshunt
p9034
sVdata
p9035
(dp9036
Vinverter
p9037
I00
sVnRelaysOn
p9038
I0
sVprev
p9039
F25.03
sVcaps
p9040
F25.19
ssg9000
F0.6057529999999982
sVmillis
p9041
I925660
sg9002
g27
(S'\x07\xdc\x06\x11\x16\x00\x01\x08S\xf0'
p9042
tp9043
Rp9044
sa(dp9045
Vmachine
p9046
Vshunt
p9047
sVdata
p9048
(dp9049
Vinverter
p9050
I00
sVnRelaysOn
p9051
I0
sVprev
p9052
F25.03
sVcaps
p9053
F25.22
ssg9000
F0.8076799999999995
sVmillis
p9054
I925860
sg9002
g27
(S'\x07\xdc\x06\x11\x16\x00\x01\x0bh\xb7'
p9055
tp9056
Rp9057
sa(dp9058
Vmachine
p9059
Vshunt
p9060
sVdata
p9061
(dp9062
Vinverter
p9063
I00
sVnRelaysOn
p9064
I0
sVprev
p9065
F25.03
sVcaps
p9066
F25.25
ssg9000
F1.009551
sVmillis
p9067
I926061
sg9002
g27
(S'\x07\xdc\x06\x11\x16\x00\x01\x0e}F'
p9068
tp9069
Rp9070
sa(dp9071
Vmachine
p9072
Vshunt
p9073
sVdata
p9074
(dp9075
Vinverter
p9076
I00
sVnRelaysOn
p9077
I0
sVprev
p9078
F25.25
sVcaps
p9079
F25.31
ssg9000
F1.2117890000000013
sVmillis
p9080
I926263
sg9002
g27
(S'\x07\xdc\x06\x11\x16\x00\x02\x02Q\x04'
p9081
tp9082
Rp9083
sa(dp9084
Vmachine
p9085
Vshunt
p9086
sVdata
p9087
(dp9088
Vinverter
p9089
I00
sVnRelaysOn
p9090
I0
sVprev
p9091
F25.25
sVcaps
p9092
F25.35
ssg9000
F1.4133739999999992
sVmillis
p9093
I926464
sg9002
g27
(S'\x07\xdc\x06\x11\x16\x00\x02\x05du'
p9094
tp9095
Rp9096
sa(dp9097
Vmachine
p9098
Vshunt
p9099
sVdata
p9100
(dp9101
Vinverter
p9102
I00
sVnRelaysOn
p9103
I0
sVprev
p9104
F25.25
sVcaps
p9105
F25.4
ssg9000
F1.6153579999999987
sVmillis
p9106
I926666
sg9002
g27
(S'\x07\xdc\x06\x11\x16\x00\x02\x08yu'
p9107
tp9108
Rp9109
sa(dp9110
Vmachine
p9111
Vshunt
p9112
sVdata
p9113
(dp9114
Vinverter
p9115
I00
sVnRelaysOn
p9116
I0
sVprev
p9117
F25.25
sVcaps
p9118
F25.42
ssg9000
F1.8160739999999986
sVmillis
p9119
I926866
sg9002
g27
(S'\x07\xdc\x06\x11\x16\x00\x02\x0b\x89\x81'
p9120
tp9121
Rp9122
sa(dp9123
Vmachine
p9124
Vshunt
p9125
sVdata
p9126
(dp9127
Vinverter
p9128
I00
sVnRelaysOn
p9129
I0
sVprev
p9130
F25.25
sVcaps
p9131
F25.45
ssg9000
F2.0185389999999988
sVmillis
p9132
I927068
sg9002
g27
(S'\x07\xdc\x06\x11\x16\x00\x02\x0e\xa0b'
p9133
tp9134
Rp9135
sa(dp9136
Vmachine
p9137
Vshunt
p9138
sVdata
p9139
(dp9140
Vinverter
p9141
I00
sVnRelaysOn
p9142
I0
sVprev
p9143
F25.45
sVcaps
p9144
F25.49
ssg9000
F2.2102020000000007
sVmillis
p9145
I927268
sg9002
g27
(S'\x07\xdc\x06\x11\x16\x00\x03\x02J\xd1'
p9146
tp9147
Rp9148
sa(dp9149
Vmachine
p9150
Vshunt
p9151
sVdata
p9152
(dp9153
Vinverter
p9154
I00
sVnRelaysOn
p9155
I0
sVprev
p9156
F25.45
sVcaps
p9157
F25.54
ssg9000
F2.413912999999999
sVmillis
p9158
I927469
sg9002
g27
(S'\x07\xdc\x06\x11\x16\x00\x03\x05f\x90'
p9159
tp9160
Rp9161
sa(dp9162
Vmachine
p9163
Vshunt
p9164
sVdata
p9165
(dp9166
Vinverter
p9167
I00
sVnRelaysOn
p9168
I0
sVprev
p9169
F25.45
sVcaps
p9170
F25.6
ssg9000
F2.615848999999999
sVmillis
p9171
I927671
sg9002
g27
(S'\x07\xdc\x06\x11\x16\x00\x03\x08{`'
p9172
tp9173
Rp9174
sa(dp9175
Vmachine
p9176
Vshunt
p9177
sVdata
p9178
(dp9179
Vinverter
p9180
I00
sVnRelaysOn
p9181
I0
sVprev
p9182
F25.45
sVcaps
p9183
F25.64
ssg9000
F2.8167489999999997
sVmillis
p9184
I927872
sg9002
g27
(S'\x07\xdc\x06\x11\x16\x00\x03\x0b\x8c$'
p9185
tp9186
Rp9187
sa(dp9188
Vmachine
p9189
Vshunt
p9190
sVdata
p9191
(dp9192
Vinverter
p9193
I00
sVnRelaysOn
p9194
I0
sVprev
p9195
F25.45
sVcaps
p9196
F25.7
ssg9000
F3.0187800000000014
sVmillis
p9197
I928074
sg9002
g27
(S'\x07\xdc\x06\x11\x16\x00\x03\x0e\xa1S'
p9198
tp9199
Rp9200
sa(dp9201
Vmachine
p9202
Vshunt
p9203
sVdata
p9204
(dp9205
Vinverter
p9206
I00
sVnRelaysOn
p9207
I0
sVprev
p9208
F25.7
sVcaps
p9209
F25.74
ssg9000
F3.2207999999999988
sVmillis
p9210
I928274
sg9002
g27
(S'\x07\xdc\x06\x11\x16\x00\x04\x02t7'
p9211
tp9212
Rp9213
sa(dp9214
Vmachine
p9215
Vshunt
p9216
sVdata
p9217
(dp9218
Vinverter
p9219
I00
sVnRelaysOn
p9220
I0
sVprev
p9221
F25.9
sVcaps
p9222
F26.06
ssg9000
F4.826753999999999
sVmillis
p9223
I929884
sg9002
g27
(S'\x07\xdc\x06\x11\x16\x00\x05\x0b\xb39'
p9224
tp9225
Rp9226
sa(dp9227
Vmachine
p9228
Vshunt
p9229
sVdata
p9230
(dp9231
Vinverter
p9232
I00
sVnRelaysOn
p9233
I0
sVprev
p9234
F25.9
sVcaps
p9235
F26.11
ssg9000
F5.028737999999999
sVmillis
p9236
I930084
sg9002
g27
(S'\x07\xdc\x06\x11\x16\x00\x05\x0e\xc89'
p9237
tp9238
Rp9239
sa(dp9240
Vmachine
p9241
Vshunt
p9242
sVdata
p9243
(dp9244
Vinverter
p9245
I00
sVnRelaysOn
p9246
I0
sVprev
p9247
F26.11
sVcaps
p9248
F26.15
ssg9000
F5.230573999999999
sVmillis
p9249
I930285
sg9002
g27
(S'\x07\xdc\x06\x11\x16\x00\x06\x02\x9ae'
p9250
tp9251
Rp9252
sa(dp9253
Vmachine
p9254
Vshunt
p9255
sVdata
p9256
(dp9257
Vinverter
p9258
I00
sVnRelaysOn
p9259
I0
sVprev
p9260
F26.11
sVcaps
p9261
F26.2
ssg9000
F5.4314540000000004
sVmillis
p9262
I930487
sg9002
g27
(S'\x07\xdc\x06\x11\x16\x00\x06\x05\xab\x15'
p9263
tp9264
Rp9265
sa(dp9266
Vmachine
p9267
Vshunt
p9268
sVdata
p9269
(dp9270
Vinverter
p9271
I00
sVnRelaysOn
p9272
I0
sVprev
p9273
F26.11
sVcaps
p9274
F26.23
ssg9000
F5.634397999999999
sVmillis
p9275
I930689
sg9002
g27
(S'\x07\xdc\x06\x11\x16\x00\x06\x08\xc3\xd5'
p9276
tp9277
Rp9278
sa(dp9279
Vmachine
p9280
Vshunt
p9281
sVdata
p9282
(dp9283
Vinverter
p9284
I00
sVnRelaysOn
p9285
I0
sVprev
p9286
F26.11
sVcaps
p9287
F26.27
ssg9000
F5.836495000000001
sVmillis
p9288
I930890
sg9002
g27
(S'\x07\xdc\x06\x11\x16\x00\x06\x0b\xd9F'
p9289
tp9290
Rp9291
sa(dp9292
Vmachine
p9293
Vshunt
p9294
sVdata
p9295
(dp9296
Vinverter
p9297
I00
sVnRelaysOn
p9298
I0
sVprev
p9299
F26.11
sVcaps
p9300
F26.3
ssg9000
F6.038237999999998
sVmillis
p9301
I931090
sg9002
g27
(S'\x07\xdc\x06\x11\x16\x00\x06\x0e\xedU'
p9302
tp9303
Rp9304
sa(dp9305
Vmachine
p9306
Vshunt
p9307
sVdata
p9308
(dp9309
Vinverter
p9310
I00
sVnRelaysOn
p9311
I0
sVprev
p9312
F26.3
sVcaps
p9313
F26.36
ssg9000
F6.239057999999998
sVmillis
p9314
I931292
sg9002
g27
(S'\x07\xdc\x06\x11\x16\x00\x07\x02\xbb\x89'
p9315
tp9316
Rp9317
sa(dp9318
Vmachine
p9319
Vshunt
p9320
sVdata
p9321
(dp9322
Vinverter
p9323
I00
sVnRelaysOn
p9324
I0
sVprev
p9325
F26.3
sVcaps
p9326
F26.4
ssg9000
F6.4411439999999995
sVmillis
p9327
I931492
sg9002
g27
(S'\x07\xdc\x06\x11\x16\x00\x07\x05\xd0\xef'
p9328
tp9329
Rp9330
sa(dp9331
Vmachine
p9332
Vshunt
p9333
sVdata
p9334
(dp9335
Vinverter
p9336
I00
sVnRelaysOn
p9337
I0
sVprev
p9338
F26.3
sVcaps
p9339
F26.47
ssg9000
F6.644242
sVmillis
p9340
I931693
sg9002
g27
(S'\x07\xdc\x06\x11\x16\x00\x07\x08\xeaI'
p9341
tp9342
Rp9343
saatp9344
b.